
SENSROR_MODBUS_v1.elf:     file format elf32-littlearm

Sections:
Idx Name          Size      VMA       LMA       File off  Algn
  0 .isr_vector   000000c0  08000000  08000000  00001000  2**0
                  CONTENTS, ALLOC, LOAD, READONLY, DATA
  1 .text         00003bd8  080000c0  080000c0  000010c0  2**2
                  CONTENTS, ALLOC, LOAD, READONLY, CODE
  2 .rodata       00000280  08003c98  08003c98  00004c98  2**2
                  CONTENTS, ALLOC, LOAD, READONLY, DATA
  3 .ARM.extab    00000000  08003f18  08003f18  0000500c  2**0
                  CONTENTS
  4 .ARM          00000000  08003f18  08003f18  0000500c  2**0
                  CONTENTS
  5 .preinit_array 00000000  08003f18  08003f18  0000500c  2**0
                  CONTENTS, ALLOC, LOAD, DATA
  6 .init_array   00000004  08003f18  08003f18  00004f18  2**2
                  CONTENTS, ALLOC, LOAD, DATA
  7 .fini_array   00000004  08003f1c  08003f1c  00004f1c  2**2
                  CONTENTS, ALLOC, LOAD, DATA
  8 .data         0000000c  20000000  08003f20  00005000  2**2
                  CONTENTS, ALLOC, LOAD, DATA
  9 .bss          000004d0  20000010  08003f2c  00005010  2**3
                  ALLOC
 10 ._user_heap_stack 00000600  200004e0  08003f2c  000054e0  2**0
                  ALLOC
 11 .ARM.attributes 00000028  00000000  00000000  0000500c  2**0
                  CONTENTS, READONLY
 12 .comment      00000043  00000000  00000000  00005034  2**0
                  CONTENTS, READONLY
 13 .debug_frame  00000164  00000000  00000000  00005078  2**2
                  CONTENTS, READONLY, DEBUGGING, OCTETS

Disassembly of section .text:

080000c0 <__do_global_dtors_aux>:
 80000c0:	b510      	push	{r4, lr}
 80000c2:	4c06      	ldr	r4, [pc, #24]	@ (80000dc <__do_global_dtors_aux+0x1c>)
 80000c4:	7823      	ldrb	r3, [r4, #0]
 80000c6:	2b00      	cmp	r3, #0
 80000c8:	d107      	bne.n	80000da <__do_global_dtors_aux+0x1a>
 80000ca:	4b05      	ldr	r3, [pc, #20]	@ (80000e0 <__do_global_dtors_aux+0x20>)
 80000cc:	2b00      	cmp	r3, #0
 80000ce:	d002      	beq.n	80000d6 <__do_global_dtors_aux+0x16>
 80000d0:	4804      	ldr	r0, [pc, #16]	@ (80000e4 <__do_global_dtors_aux+0x24>)
 80000d2:	e000      	b.n	80000d6 <__do_global_dtors_aux+0x16>
 80000d4:	bf00      	nop
 80000d6:	2301      	movs	r3, #1
 80000d8:	7023      	strb	r3, [r4, #0]
 80000da:	bd10      	pop	{r4, pc}
 80000dc:	20000010 	.word	0x20000010
 80000e0:	00000000 	.word	0x00000000
 80000e4:	08003c80 	.word	0x08003c80

080000e8 <frame_dummy>:
 80000e8:	4b04      	ldr	r3, [pc, #16]	@ (80000fc <frame_dummy+0x14>)
 80000ea:	b510      	push	{r4, lr}
 80000ec:	2b00      	cmp	r3, #0
 80000ee:	d003      	beq.n	80000f8 <frame_dummy+0x10>
 80000f0:	4903      	ldr	r1, [pc, #12]	@ (8000100 <frame_dummy+0x18>)
 80000f2:	4804      	ldr	r0, [pc, #16]	@ (8000104 <frame_dummy+0x1c>)
 80000f4:	e000      	b.n	80000f8 <frame_dummy+0x10>
 80000f6:	bf00      	nop
 80000f8:	bd10      	pop	{r4, pc}
 80000fa:	46c0      	nop			@ (mov r8, r8)
 80000fc:	00000000 	.word	0x00000000
 8000100:	20000014 	.word	0x20000014
 8000104:	08003c80 	.word	0x08003c80

08000108 <__gnu_thumb1_case_uqi>:
 8000108:	b402      	push	{r1}
 800010a:	4671      	mov	r1, lr
 800010c:	0849      	lsrs	r1, r1, #1
 800010e:	0049      	lsls	r1, r1, #1
 8000110:	5c09      	ldrb	r1, [r1, r0]
 8000112:	0049      	lsls	r1, r1, #1
 8000114:	448e      	add	lr, r1
 8000116:	bc02      	pop	{r1}
 8000118:	4770      	bx	lr
 800011a:	46c0      	nop			@ (mov r8, r8)

0800011c <__udivsi3>:
 800011c:	2200      	movs	r2, #0
 800011e:	0843      	lsrs	r3, r0, #1
 8000120:	428b      	cmp	r3, r1
 8000122:	d374      	bcc.n	800020e <__udivsi3+0xf2>
 8000124:	0903      	lsrs	r3, r0, #4
 8000126:	428b      	cmp	r3, r1
 8000128:	d35f      	bcc.n	80001ea <__udivsi3+0xce>
 800012a:	0a03      	lsrs	r3, r0, #8
 800012c:	428b      	cmp	r3, r1
 800012e:	d344      	bcc.n	80001ba <__udivsi3+0x9e>
 8000130:	0b03      	lsrs	r3, r0, #12
 8000132:	428b      	cmp	r3, r1
 8000134:	d328      	bcc.n	8000188 <__udivsi3+0x6c>
 8000136:	0c03      	lsrs	r3, r0, #16
 8000138:	428b      	cmp	r3, r1
 800013a:	d30d      	bcc.n	8000158 <__udivsi3+0x3c>
 800013c:	22ff      	movs	r2, #255	@ 0xff
 800013e:	0209      	lsls	r1, r1, #8
 8000140:	ba12      	rev	r2, r2
 8000142:	0c03      	lsrs	r3, r0, #16
 8000144:	428b      	cmp	r3, r1
 8000146:	d302      	bcc.n	800014e <__udivsi3+0x32>
 8000148:	1212      	asrs	r2, r2, #8
 800014a:	0209      	lsls	r1, r1, #8
 800014c:	d065      	beq.n	800021a <__udivsi3+0xfe>
 800014e:	0b03      	lsrs	r3, r0, #12
 8000150:	428b      	cmp	r3, r1
 8000152:	d319      	bcc.n	8000188 <__udivsi3+0x6c>
 8000154:	e000      	b.n	8000158 <__udivsi3+0x3c>
 8000156:	0a09      	lsrs	r1, r1, #8
 8000158:	0bc3      	lsrs	r3, r0, #15
 800015a:	428b      	cmp	r3, r1
 800015c:	d301      	bcc.n	8000162 <__udivsi3+0x46>
 800015e:	03cb      	lsls	r3, r1, #15
 8000160:	1ac0      	subs	r0, r0, r3
 8000162:	4152      	adcs	r2, r2
 8000164:	0b83      	lsrs	r3, r0, #14
 8000166:	428b      	cmp	r3, r1
 8000168:	d301      	bcc.n	800016e <__udivsi3+0x52>
 800016a:	038b      	lsls	r3, r1, #14
 800016c:	1ac0      	subs	r0, r0, r3
 800016e:	4152      	adcs	r2, r2
 8000170:	0b43      	lsrs	r3, r0, #13
 8000172:	428b      	cmp	r3, r1
 8000174:	d301      	bcc.n	800017a <__udivsi3+0x5e>
 8000176:	034b      	lsls	r3, r1, #13
 8000178:	1ac0      	subs	r0, r0, r3
 800017a:	4152      	adcs	r2, r2
 800017c:	0b03      	lsrs	r3, r0, #12
 800017e:	428b      	cmp	r3, r1
 8000180:	d301      	bcc.n	8000186 <__udivsi3+0x6a>
 8000182:	030b      	lsls	r3, r1, #12
 8000184:	1ac0      	subs	r0, r0, r3
 8000186:	4152      	adcs	r2, r2
 8000188:	0ac3      	lsrs	r3, r0, #11
 800018a:	428b      	cmp	r3, r1
 800018c:	d301      	bcc.n	8000192 <__udivsi3+0x76>
 800018e:	02cb      	lsls	r3, r1, #11
 8000190:	1ac0      	subs	r0, r0, r3
 8000192:	4152      	adcs	r2, r2
 8000194:	0a83      	lsrs	r3, r0, #10
 8000196:	428b      	cmp	r3, r1
 8000198:	d301      	bcc.n	800019e <__udivsi3+0x82>
 800019a:	028b      	lsls	r3, r1, #10
 800019c:	1ac0      	subs	r0, r0, r3
 800019e:	4152      	adcs	r2, r2
 80001a0:	0a43      	lsrs	r3, r0, #9
 80001a2:	428b      	cmp	r3, r1
 80001a4:	d301      	bcc.n	80001aa <__udivsi3+0x8e>
 80001a6:	024b      	lsls	r3, r1, #9
 80001a8:	1ac0      	subs	r0, r0, r3
 80001aa:	4152      	adcs	r2, r2
 80001ac:	0a03      	lsrs	r3, r0, #8
 80001ae:	428b      	cmp	r3, r1
 80001b0:	d301      	bcc.n	80001b6 <__udivsi3+0x9a>
 80001b2:	020b      	lsls	r3, r1, #8
 80001b4:	1ac0      	subs	r0, r0, r3
 80001b6:	4152      	adcs	r2, r2
 80001b8:	d2cd      	bcs.n	8000156 <__udivsi3+0x3a>
 80001ba:	09c3      	lsrs	r3, r0, #7
 80001bc:	428b      	cmp	r3, r1
 80001be:	d301      	bcc.n	80001c4 <__udivsi3+0xa8>
 80001c0:	01cb      	lsls	r3, r1, #7
 80001c2:	1ac0      	subs	r0, r0, r3
 80001c4:	4152      	adcs	r2, r2
 80001c6:	0983      	lsrs	r3, r0, #6
 80001c8:	428b      	cmp	r3, r1
 80001ca:	d301      	bcc.n	80001d0 <__udivsi3+0xb4>
 80001cc:	018b      	lsls	r3, r1, #6
 80001ce:	1ac0      	subs	r0, r0, r3
 80001d0:	4152      	adcs	r2, r2
 80001d2:	0943      	lsrs	r3, r0, #5
 80001d4:	428b      	cmp	r3, r1
 80001d6:	d301      	bcc.n	80001dc <__udivsi3+0xc0>
 80001d8:	014b      	lsls	r3, r1, #5
 80001da:	1ac0      	subs	r0, r0, r3
 80001dc:	4152      	adcs	r2, r2
 80001de:	0903      	lsrs	r3, r0, #4
 80001e0:	428b      	cmp	r3, r1
 80001e2:	d301      	bcc.n	80001e8 <__udivsi3+0xcc>
 80001e4:	010b      	lsls	r3, r1, #4
 80001e6:	1ac0      	subs	r0, r0, r3
 80001e8:	4152      	adcs	r2, r2
 80001ea:	08c3      	lsrs	r3, r0, #3
 80001ec:	428b      	cmp	r3, r1
 80001ee:	d301      	bcc.n	80001f4 <__udivsi3+0xd8>
 80001f0:	00cb      	lsls	r3, r1, #3
 80001f2:	1ac0      	subs	r0, r0, r3
 80001f4:	4152      	adcs	r2, r2
 80001f6:	0883      	lsrs	r3, r0, #2
 80001f8:	428b      	cmp	r3, r1
 80001fa:	d301      	bcc.n	8000200 <__udivsi3+0xe4>
 80001fc:	008b      	lsls	r3, r1, #2
 80001fe:	1ac0      	subs	r0, r0, r3
 8000200:	4152      	adcs	r2, r2
 8000202:	0843      	lsrs	r3, r0, #1
 8000204:	428b      	cmp	r3, r1
 8000206:	d301      	bcc.n	800020c <__udivsi3+0xf0>
 8000208:	004b      	lsls	r3, r1, #1
 800020a:	1ac0      	subs	r0, r0, r3
 800020c:	4152      	adcs	r2, r2
 800020e:	1a41      	subs	r1, r0, r1
 8000210:	d200      	bcs.n	8000214 <__udivsi3+0xf8>
 8000212:	4601      	mov	r1, r0
 8000214:	4152      	adcs	r2, r2
 8000216:	4610      	mov	r0, r2
 8000218:	4770      	bx	lr
 800021a:	e7ff      	b.n	800021c <__udivsi3+0x100>
 800021c:	b501      	push	{r0, lr}
 800021e:	2000      	movs	r0, #0
 8000220:	f000 f806 	bl	8000230 <__aeabi_idiv0>
 8000224:	bd02      	pop	{r1, pc}
 8000226:	46c0      	nop			@ (mov r8, r8)

08000228 <__aeabi_uidivmod>:
 8000228:	2900      	cmp	r1, #0
 800022a:	d0f7      	beq.n	800021c <__udivsi3+0x100>
 800022c:	e776      	b.n	800011c <__udivsi3>
 800022e:	4770      	bx	lr

08000230 <__aeabi_idiv0>:
 8000230:	4770      	bx	lr
 8000232:	46c0      	nop			@ (mov r8, r8)

08000234 <__aeabi_llsr>:
 8000234:	40d0      	lsrs	r0, r2
 8000236:	000b      	movs	r3, r1
 8000238:	40d1      	lsrs	r1, r2
 800023a:	469c      	mov	ip, r3
 800023c:	3a20      	subs	r2, #32
 800023e:	40d3      	lsrs	r3, r2
 8000240:	4318      	orrs	r0, r3
 8000242:	4252      	negs	r2, r2
 8000244:	4663      	mov	r3, ip
 8000246:	4093      	lsls	r3, r2
 8000248:	4318      	orrs	r0, r3
 800024a:	4770      	bx	lr

0800024c <__aeabi_ddiv>:
 800024c:	b5f0      	push	{r4, r5, r6, r7, lr}
 800024e:	46de      	mov	lr, fp
 8000250:	4645      	mov	r5, r8
 8000252:	4657      	mov	r7, sl
 8000254:	464e      	mov	r6, r9
 8000256:	b5e0      	push	{r5, r6, r7, lr}
 8000258:	b087      	sub	sp, #28
 800025a:	9200      	str	r2, [sp, #0]
 800025c:	9301      	str	r3, [sp, #4]
 800025e:	030b      	lsls	r3, r1, #12
 8000260:	0b1b      	lsrs	r3, r3, #12
 8000262:	469b      	mov	fp, r3
 8000264:	0fca      	lsrs	r2, r1, #31
 8000266:	004b      	lsls	r3, r1, #1
 8000268:	0004      	movs	r4, r0
 800026a:	4680      	mov	r8, r0
 800026c:	0d5b      	lsrs	r3, r3, #21
 800026e:	9202      	str	r2, [sp, #8]
 8000270:	d100      	bne.n	8000274 <__aeabi_ddiv+0x28>
 8000272:	e16a      	b.n	800054a <__aeabi_ddiv+0x2fe>
 8000274:	4ad4      	ldr	r2, [pc, #848]	@ (80005c8 <__aeabi_ddiv+0x37c>)
 8000276:	4293      	cmp	r3, r2
 8000278:	d100      	bne.n	800027c <__aeabi_ddiv+0x30>
 800027a:	e18c      	b.n	8000596 <__aeabi_ddiv+0x34a>
 800027c:	4659      	mov	r1, fp
 800027e:	0f42      	lsrs	r2, r0, #29
 8000280:	00c9      	lsls	r1, r1, #3
 8000282:	430a      	orrs	r2, r1
 8000284:	2180      	movs	r1, #128	@ 0x80
 8000286:	0409      	lsls	r1, r1, #16
 8000288:	4311      	orrs	r1, r2
 800028a:	00c2      	lsls	r2, r0, #3
 800028c:	4690      	mov	r8, r2
 800028e:	4acf      	ldr	r2, [pc, #828]	@ (80005cc <__aeabi_ddiv+0x380>)
 8000290:	4689      	mov	r9, r1
 8000292:	4692      	mov	sl, r2
 8000294:	449a      	add	sl, r3
 8000296:	2300      	movs	r3, #0
 8000298:	2400      	movs	r4, #0
 800029a:	9303      	str	r3, [sp, #12]
 800029c:	9e00      	ldr	r6, [sp, #0]
 800029e:	9f01      	ldr	r7, [sp, #4]
 80002a0:	033b      	lsls	r3, r7, #12
 80002a2:	0b1b      	lsrs	r3, r3, #12
 80002a4:	469b      	mov	fp, r3
 80002a6:	007b      	lsls	r3, r7, #1
 80002a8:	0030      	movs	r0, r6
 80002aa:	0d5b      	lsrs	r3, r3, #21
 80002ac:	0ffd      	lsrs	r5, r7, #31
 80002ae:	2b00      	cmp	r3, #0
 80002b0:	d100      	bne.n	80002b4 <__aeabi_ddiv+0x68>
 80002b2:	e128      	b.n	8000506 <__aeabi_ddiv+0x2ba>
 80002b4:	4ac4      	ldr	r2, [pc, #784]	@ (80005c8 <__aeabi_ddiv+0x37c>)
 80002b6:	4293      	cmp	r3, r2
 80002b8:	d100      	bne.n	80002bc <__aeabi_ddiv+0x70>
 80002ba:	e177      	b.n	80005ac <__aeabi_ddiv+0x360>
 80002bc:	4659      	mov	r1, fp
 80002be:	0f72      	lsrs	r2, r6, #29
 80002c0:	00c9      	lsls	r1, r1, #3
 80002c2:	430a      	orrs	r2, r1
 80002c4:	2180      	movs	r1, #128	@ 0x80
 80002c6:	0409      	lsls	r1, r1, #16
 80002c8:	4311      	orrs	r1, r2
 80002ca:	468b      	mov	fp, r1
 80002cc:	49bf      	ldr	r1, [pc, #764]	@ (80005cc <__aeabi_ddiv+0x380>)
 80002ce:	00f2      	lsls	r2, r6, #3
 80002d0:	468c      	mov	ip, r1
 80002d2:	4651      	mov	r1, sl
 80002d4:	4463      	add	r3, ip
 80002d6:	1acb      	subs	r3, r1, r3
 80002d8:	469a      	mov	sl, r3
 80002da:	2300      	movs	r3, #0
 80002dc:	9e02      	ldr	r6, [sp, #8]
 80002de:	406e      	eors	r6, r5
 80002e0:	2c0f      	cmp	r4, #15
 80002e2:	d827      	bhi.n	8000334 <__aeabi_ddiv+0xe8>
 80002e4:	49ba      	ldr	r1, [pc, #744]	@ (80005d0 <__aeabi_ddiv+0x384>)
 80002e6:	00a4      	lsls	r4, r4, #2
 80002e8:	5909      	ldr	r1, [r1, r4]
 80002ea:	468f      	mov	pc, r1
 80002ec:	46cb      	mov	fp, r9
 80002ee:	4642      	mov	r2, r8
 80002f0:	9e02      	ldr	r6, [sp, #8]
 80002f2:	9b03      	ldr	r3, [sp, #12]
 80002f4:	2b02      	cmp	r3, #2
 80002f6:	d016      	beq.n	8000326 <__aeabi_ddiv+0xda>
 80002f8:	2b03      	cmp	r3, #3
 80002fa:	d100      	bne.n	80002fe <__aeabi_ddiv+0xb2>
 80002fc:	e2a6      	b.n	800084c <__aeabi_ddiv+0x600>
 80002fe:	2b01      	cmp	r3, #1
 8000300:	d000      	beq.n	8000304 <__aeabi_ddiv+0xb8>
 8000302:	e0df      	b.n	80004c4 <__aeabi_ddiv+0x278>
 8000304:	2200      	movs	r2, #0
 8000306:	2300      	movs	r3, #0
 8000308:	2400      	movs	r4, #0
 800030a:	4690      	mov	r8, r2
 800030c:	051b      	lsls	r3, r3, #20
 800030e:	4323      	orrs	r3, r4
 8000310:	07f6      	lsls	r6, r6, #31
 8000312:	4333      	orrs	r3, r6
 8000314:	4640      	mov	r0, r8
 8000316:	0019      	movs	r1, r3
 8000318:	b007      	add	sp, #28
 800031a:	bcf0      	pop	{r4, r5, r6, r7}
 800031c:	46bb      	mov	fp, r7
 800031e:	46b2      	mov	sl, r6
 8000320:	46a9      	mov	r9, r5
 8000322:	46a0      	mov	r8, r4
 8000324:	bdf0      	pop	{r4, r5, r6, r7, pc}
 8000326:	2200      	movs	r2, #0
 8000328:	2400      	movs	r4, #0
 800032a:	4690      	mov	r8, r2
 800032c:	4ba6      	ldr	r3, [pc, #664]	@ (80005c8 <__aeabi_ddiv+0x37c>)
 800032e:	e7ed      	b.n	800030c <__aeabi_ddiv+0xc0>
 8000330:	002e      	movs	r6, r5
 8000332:	e7df      	b.n	80002f4 <__aeabi_ddiv+0xa8>
 8000334:	45cb      	cmp	fp, r9
 8000336:	d200      	bcs.n	800033a <__aeabi_ddiv+0xee>
 8000338:	e1d4      	b.n	80006e4 <__aeabi_ddiv+0x498>
 800033a:	d100      	bne.n	800033e <__aeabi_ddiv+0xf2>
 800033c:	e1cf      	b.n	80006de <__aeabi_ddiv+0x492>
 800033e:	2301      	movs	r3, #1
 8000340:	425b      	negs	r3, r3
 8000342:	469c      	mov	ip, r3
 8000344:	4644      	mov	r4, r8
 8000346:	4648      	mov	r0, r9
 8000348:	2700      	movs	r7, #0
 800034a:	44e2      	add	sl, ip
 800034c:	465b      	mov	r3, fp
 800034e:	0e15      	lsrs	r5, r2, #24
 8000350:	021b      	lsls	r3, r3, #8
 8000352:	431d      	orrs	r5, r3
 8000354:	0c19      	lsrs	r1, r3, #16
 8000356:	042b      	lsls	r3, r5, #16
 8000358:	0212      	lsls	r2, r2, #8
 800035a:	9500      	str	r5, [sp, #0]
 800035c:	0c1d      	lsrs	r5, r3, #16
 800035e:	4691      	mov	r9, r2
 8000360:	9102      	str	r1, [sp, #8]
 8000362:	9503      	str	r5, [sp, #12]
 8000364:	f7ff ff60 	bl	8000228 <__aeabi_uidivmod>
 8000368:	0002      	movs	r2, r0
 800036a:	436a      	muls	r2, r5
 800036c:	040b      	lsls	r3, r1, #16
 800036e:	0c21      	lsrs	r1, r4, #16
 8000370:	4680      	mov	r8, r0
 8000372:	4319      	orrs	r1, r3
 8000374:	428a      	cmp	r2, r1
 8000376:	d909      	bls.n	800038c <__aeabi_ddiv+0x140>
 8000378:	9d00      	ldr	r5, [sp, #0]
 800037a:	2301      	movs	r3, #1
 800037c:	46ac      	mov	ip, r5
 800037e:	425b      	negs	r3, r3
 8000380:	4461      	add	r1, ip
 8000382:	469c      	mov	ip, r3
 8000384:	44e0      	add	r8, ip
 8000386:	428d      	cmp	r5, r1
 8000388:	d800      	bhi.n	800038c <__aeabi_ddiv+0x140>
 800038a:	e1fb      	b.n	8000784 <__aeabi_ddiv+0x538>
 800038c:	1a88      	subs	r0, r1, r2
 800038e:	9902      	ldr	r1, [sp, #8]
 8000390:	f7ff ff4a 	bl	8000228 <__aeabi_uidivmod>
 8000394:	9a03      	ldr	r2, [sp, #12]
 8000396:	0424      	lsls	r4, r4, #16
 8000398:	4342      	muls	r2, r0
 800039a:	0409      	lsls	r1, r1, #16
 800039c:	0c24      	lsrs	r4, r4, #16
 800039e:	0003      	movs	r3, r0
 80003a0:	430c      	orrs	r4, r1
 80003a2:	42a2      	cmp	r2, r4
 80003a4:	d906      	bls.n	80003b4 <__aeabi_ddiv+0x168>
 80003a6:	9900      	ldr	r1, [sp, #0]
 80003a8:	3b01      	subs	r3, #1
 80003aa:	468c      	mov	ip, r1
 80003ac:	4464      	add	r4, ip
 80003ae:	42a1      	cmp	r1, r4
 80003b0:	d800      	bhi.n	80003b4 <__aeabi_ddiv+0x168>
 80003b2:	e1e1      	b.n	8000778 <__aeabi_ddiv+0x52c>
 80003b4:	1aa0      	subs	r0, r4, r2
 80003b6:	4642      	mov	r2, r8
 80003b8:	0412      	lsls	r2, r2, #16
 80003ba:	431a      	orrs	r2, r3
 80003bc:	4693      	mov	fp, r2
 80003be:	464b      	mov	r3, r9
 80003c0:	4659      	mov	r1, fp
 80003c2:	0c1b      	lsrs	r3, r3, #16
 80003c4:	001d      	movs	r5, r3
 80003c6:	9304      	str	r3, [sp, #16]
 80003c8:	040b      	lsls	r3, r1, #16
 80003ca:	4649      	mov	r1, r9
 80003cc:	0409      	lsls	r1, r1, #16
 80003ce:	0c09      	lsrs	r1, r1, #16
 80003d0:	000c      	movs	r4, r1
 80003d2:	0c1b      	lsrs	r3, r3, #16
 80003d4:	435c      	muls	r4, r3
 80003d6:	0c12      	lsrs	r2, r2, #16
 80003d8:	436b      	muls	r3, r5
 80003da:	4688      	mov	r8, r1
 80003dc:	4351      	muls	r1, r2
 80003de:	436a      	muls	r2, r5
 80003e0:	0c25      	lsrs	r5, r4, #16
 80003e2:	46ac      	mov	ip, r5
 80003e4:	185b      	adds	r3, r3, r1
 80003e6:	4463      	add	r3, ip
 80003e8:	4299      	cmp	r1, r3
 80003ea:	d903      	bls.n	80003f4 <__aeabi_ddiv+0x1a8>
 80003ec:	2180      	movs	r1, #128	@ 0x80
 80003ee:	0249      	lsls	r1, r1, #9
 80003f0:	468c      	mov	ip, r1
 80003f2:	4462      	add	r2, ip
 80003f4:	0c19      	lsrs	r1, r3, #16
 80003f6:	0424      	lsls	r4, r4, #16
 80003f8:	041b      	lsls	r3, r3, #16
 80003fa:	0c24      	lsrs	r4, r4, #16
 80003fc:	188a      	adds	r2, r1, r2
 80003fe:	191c      	adds	r4, r3, r4
 8000400:	4290      	cmp	r0, r2
 8000402:	d302      	bcc.n	800040a <__aeabi_ddiv+0x1be>
 8000404:	d116      	bne.n	8000434 <__aeabi_ddiv+0x1e8>
 8000406:	42a7      	cmp	r7, r4
 8000408:	d214      	bcs.n	8000434 <__aeabi_ddiv+0x1e8>
 800040a:	465b      	mov	r3, fp
 800040c:	9d00      	ldr	r5, [sp, #0]
 800040e:	3b01      	subs	r3, #1
 8000410:	444f      	add	r7, r9
 8000412:	9305      	str	r3, [sp, #20]
 8000414:	454f      	cmp	r7, r9
 8000416:	419b      	sbcs	r3, r3
 8000418:	46ac      	mov	ip, r5
 800041a:	425b      	negs	r3, r3
 800041c:	4463      	add	r3, ip
 800041e:	18c0      	adds	r0, r0, r3
 8000420:	4285      	cmp	r5, r0
 8000422:	d300      	bcc.n	8000426 <__aeabi_ddiv+0x1da>
 8000424:	e1a1      	b.n	800076a <__aeabi_ddiv+0x51e>
 8000426:	4282      	cmp	r2, r0
 8000428:	d900      	bls.n	800042c <__aeabi_ddiv+0x1e0>
 800042a:	e1f6      	b.n	800081a <__aeabi_ddiv+0x5ce>
 800042c:	d100      	bne.n	8000430 <__aeabi_ddiv+0x1e4>
 800042e:	e1f1      	b.n	8000814 <__aeabi_ddiv+0x5c8>
 8000430:	9b05      	ldr	r3, [sp, #20]
 8000432:	469b      	mov	fp, r3
 8000434:	1b3c      	subs	r4, r7, r4
 8000436:	42a7      	cmp	r7, r4
 8000438:	41bf      	sbcs	r7, r7
 800043a:	9d00      	ldr	r5, [sp, #0]
 800043c:	1a80      	subs	r0, r0, r2
 800043e:	427f      	negs	r7, r7
 8000440:	1bc0      	subs	r0, r0, r7
 8000442:	4285      	cmp	r5, r0
 8000444:	d100      	bne.n	8000448 <__aeabi_ddiv+0x1fc>
 8000446:	e1d0      	b.n	80007ea <__aeabi_ddiv+0x59e>
 8000448:	9902      	ldr	r1, [sp, #8]
 800044a:	f7ff feed 	bl	8000228 <__aeabi_uidivmod>
 800044e:	9a03      	ldr	r2, [sp, #12]
 8000450:	040b      	lsls	r3, r1, #16
 8000452:	4342      	muls	r2, r0
 8000454:	0c21      	lsrs	r1, r4, #16
 8000456:	0007      	movs	r7, r0
 8000458:	4319      	orrs	r1, r3
 800045a:	428a      	cmp	r2, r1
 800045c:	d900      	bls.n	8000460 <__aeabi_ddiv+0x214>
 800045e:	e178      	b.n	8000752 <__aeabi_ddiv+0x506>
 8000460:	1a88      	subs	r0, r1, r2
 8000462:	9902      	ldr	r1, [sp, #8]
 8000464:	f7ff fee0 	bl	8000228 <__aeabi_uidivmod>
 8000468:	9a03      	ldr	r2, [sp, #12]
 800046a:	0424      	lsls	r4, r4, #16
 800046c:	4342      	muls	r2, r0
 800046e:	0409      	lsls	r1, r1, #16
 8000470:	0c24      	lsrs	r4, r4, #16
 8000472:	0003      	movs	r3, r0
 8000474:	430c      	orrs	r4, r1
 8000476:	42a2      	cmp	r2, r4
 8000478:	d900      	bls.n	800047c <__aeabi_ddiv+0x230>
 800047a:	e15d      	b.n	8000738 <__aeabi_ddiv+0x4ec>
 800047c:	4641      	mov	r1, r8
 800047e:	1aa4      	subs	r4, r4, r2
 8000480:	043a      	lsls	r2, r7, #16
 8000482:	431a      	orrs	r2, r3
 8000484:	9d04      	ldr	r5, [sp, #16]
 8000486:	0413      	lsls	r3, r2, #16
 8000488:	0c1b      	lsrs	r3, r3, #16
 800048a:	4359      	muls	r1, r3
 800048c:	4647      	mov	r7, r8
 800048e:	436b      	muls	r3, r5
 8000490:	469c      	mov	ip, r3
 8000492:	0c10      	lsrs	r0, r2, #16
 8000494:	4347      	muls	r7, r0
 8000496:	0c0b      	lsrs	r3, r1, #16
 8000498:	44bc      	add	ip, r7
 800049a:	4463      	add	r3, ip
 800049c:	4368      	muls	r0, r5
 800049e:	429f      	cmp	r7, r3
 80004a0:	d903      	bls.n	80004aa <__aeabi_ddiv+0x25e>
 80004a2:	2580      	movs	r5, #128	@ 0x80
 80004a4:	026d      	lsls	r5, r5, #9
 80004a6:	46ac      	mov	ip, r5
 80004a8:	4460      	add	r0, ip
 80004aa:	0c1f      	lsrs	r7, r3, #16
 80004ac:	0409      	lsls	r1, r1, #16
 80004ae:	041b      	lsls	r3, r3, #16
 80004b0:	0c09      	lsrs	r1, r1, #16
 80004b2:	183f      	adds	r7, r7, r0
 80004b4:	185b      	adds	r3, r3, r1
 80004b6:	42bc      	cmp	r4, r7
 80004b8:	d200      	bcs.n	80004bc <__aeabi_ddiv+0x270>
 80004ba:	e102      	b.n	80006c2 <__aeabi_ddiv+0x476>
 80004bc:	d100      	bne.n	80004c0 <__aeabi_ddiv+0x274>
 80004be:	e0fd      	b.n	80006bc <__aeabi_ddiv+0x470>
 80004c0:	2301      	movs	r3, #1
 80004c2:	431a      	orrs	r2, r3
 80004c4:	4b43      	ldr	r3, [pc, #268]	@ (80005d4 <__aeabi_ddiv+0x388>)
 80004c6:	4453      	add	r3, sl
 80004c8:	2b00      	cmp	r3, #0
 80004ca:	dc00      	bgt.n	80004ce <__aeabi_ddiv+0x282>
 80004cc:	e0ae      	b.n	800062c <__aeabi_ddiv+0x3e0>
 80004ce:	0751      	lsls	r1, r2, #29
 80004d0:	d000      	beq.n	80004d4 <__aeabi_ddiv+0x288>
 80004d2:	e198      	b.n	8000806 <__aeabi_ddiv+0x5ba>
 80004d4:	4659      	mov	r1, fp
 80004d6:	01c9      	lsls	r1, r1, #7
 80004d8:	d506      	bpl.n	80004e8 <__aeabi_ddiv+0x29c>
 80004da:	4659      	mov	r1, fp
 80004dc:	4b3e      	ldr	r3, [pc, #248]	@ (80005d8 <__aeabi_ddiv+0x38c>)
 80004de:	4019      	ands	r1, r3
 80004e0:	2380      	movs	r3, #128	@ 0x80
 80004e2:	468b      	mov	fp, r1
 80004e4:	00db      	lsls	r3, r3, #3
 80004e6:	4453      	add	r3, sl
 80004e8:	493c      	ldr	r1, [pc, #240]	@ (80005dc <__aeabi_ddiv+0x390>)
 80004ea:	428b      	cmp	r3, r1
 80004ec:	dd00      	ble.n	80004f0 <__aeabi_ddiv+0x2a4>
 80004ee:	e71a      	b.n	8000326 <__aeabi_ddiv+0xda>
 80004f0:	4659      	mov	r1, fp
 80004f2:	08d2      	lsrs	r2, r2, #3
 80004f4:	0749      	lsls	r1, r1, #29
 80004f6:	4311      	orrs	r1, r2
 80004f8:	465a      	mov	r2, fp
 80004fa:	055b      	lsls	r3, r3, #21
 80004fc:	0254      	lsls	r4, r2, #9
 80004fe:	4688      	mov	r8, r1
 8000500:	0b24      	lsrs	r4, r4, #12
 8000502:	0d5b      	lsrs	r3, r3, #21
 8000504:	e702      	b.n	800030c <__aeabi_ddiv+0xc0>
 8000506:	465a      	mov	r2, fp
 8000508:	9b00      	ldr	r3, [sp, #0]
 800050a:	431a      	orrs	r2, r3
 800050c:	d100      	bne.n	8000510 <__aeabi_ddiv+0x2c4>
 800050e:	e07e      	b.n	800060e <__aeabi_ddiv+0x3c2>
 8000510:	465b      	mov	r3, fp
 8000512:	2b00      	cmp	r3, #0
 8000514:	d100      	bne.n	8000518 <__aeabi_ddiv+0x2cc>
 8000516:	e100      	b.n	800071a <__aeabi_ddiv+0x4ce>
 8000518:	4658      	mov	r0, fp
 800051a:	f000 fd21 	bl	8000f60 <__clzsi2>
 800051e:	0002      	movs	r2, r0
 8000520:	0003      	movs	r3, r0
 8000522:	3a0b      	subs	r2, #11
 8000524:	271d      	movs	r7, #29
 8000526:	9e00      	ldr	r6, [sp, #0]
 8000528:	1aba      	subs	r2, r7, r2
 800052a:	0019      	movs	r1, r3
 800052c:	4658      	mov	r0, fp
 800052e:	40d6      	lsrs	r6, r2
 8000530:	3908      	subs	r1, #8
 8000532:	4088      	lsls	r0, r1
 8000534:	0032      	movs	r2, r6
 8000536:	4302      	orrs	r2, r0
 8000538:	4693      	mov	fp, r2
 800053a:	9a00      	ldr	r2, [sp, #0]
 800053c:	408a      	lsls	r2, r1
 800053e:	4928      	ldr	r1, [pc, #160]	@ (80005e0 <__aeabi_ddiv+0x394>)
 8000540:	4453      	add	r3, sl
 8000542:	468a      	mov	sl, r1
 8000544:	449a      	add	sl, r3
 8000546:	2300      	movs	r3, #0
 8000548:	e6c8      	b.n	80002dc <__aeabi_ddiv+0x90>
 800054a:	465b      	mov	r3, fp
 800054c:	4303      	orrs	r3, r0
 800054e:	4699      	mov	r9, r3
 8000550:	d056      	beq.n	8000600 <__aeabi_ddiv+0x3b4>
 8000552:	465b      	mov	r3, fp
 8000554:	2b00      	cmp	r3, #0
 8000556:	d100      	bne.n	800055a <__aeabi_ddiv+0x30e>
 8000558:	e0cd      	b.n	80006f6 <__aeabi_ddiv+0x4aa>
 800055a:	4658      	mov	r0, fp
 800055c:	f000 fd00 	bl	8000f60 <__clzsi2>
 8000560:	230b      	movs	r3, #11
 8000562:	425b      	negs	r3, r3
 8000564:	469c      	mov	ip, r3
 8000566:	0002      	movs	r2, r0
 8000568:	4484      	add	ip, r0
 800056a:	4666      	mov	r6, ip
 800056c:	231d      	movs	r3, #29
 800056e:	1b9b      	subs	r3, r3, r6
 8000570:	0026      	movs	r6, r4
 8000572:	0011      	movs	r1, r2
 8000574:	4658      	mov	r0, fp
 8000576:	40de      	lsrs	r6, r3
 8000578:	3908      	subs	r1, #8
 800057a:	4088      	lsls	r0, r1
 800057c:	0033      	movs	r3, r6
 800057e:	4303      	orrs	r3, r0
 8000580:	4699      	mov	r9, r3
 8000582:	0023      	movs	r3, r4
 8000584:	408b      	lsls	r3, r1
 8000586:	4698      	mov	r8, r3
 8000588:	4b16      	ldr	r3, [pc, #88]	@ (80005e4 <__aeabi_ddiv+0x398>)
 800058a:	2400      	movs	r4, #0
 800058c:	1a9b      	subs	r3, r3, r2
 800058e:	469a      	mov	sl, r3
 8000590:	2300      	movs	r3, #0
 8000592:	9303      	str	r3, [sp, #12]
 8000594:	e682      	b.n	800029c <__aeabi_ddiv+0x50>
 8000596:	465a      	mov	r2, fp
 8000598:	4302      	orrs	r2, r0
 800059a:	4691      	mov	r9, r2
 800059c:	d12a      	bne.n	80005f4 <__aeabi_ddiv+0x3a8>
 800059e:	2200      	movs	r2, #0
 80005a0:	469a      	mov	sl, r3
 80005a2:	2302      	movs	r3, #2
 80005a4:	4690      	mov	r8, r2
 80005a6:	2408      	movs	r4, #8
 80005a8:	9303      	str	r3, [sp, #12]
 80005aa:	e677      	b.n	800029c <__aeabi_ddiv+0x50>
 80005ac:	465a      	mov	r2, fp
 80005ae:	9b00      	ldr	r3, [sp, #0]
 80005b0:	431a      	orrs	r2, r3
 80005b2:	4b0d      	ldr	r3, [pc, #52]	@ (80005e8 <__aeabi_ddiv+0x39c>)
 80005b4:	469c      	mov	ip, r3
 80005b6:	44e2      	add	sl, ip
 80005b8:	2a00      	cmp	r2, #0
 80005ba:	d117      	bne.n	80005ec <__aeabi_ddiv+0x3a0>
 80005bc:	2302      	movs	r3, #2
 80005be:	431c      	orrs	r4, r3
 80005c0:	2300      	movs	r3, #0
 80005c2:	469b      	mov	fp, r3
 80005c4:	3302      	adds	r3, #2
 80005c6:	e689      	b.n	80002dc <__aeabi_ddiv+0x90>
 80005c8:	000007ff 	.word	0x000007ff
 80005cc:	fffffc01 	.word	0xfffffc01
 80005d0:	08003c98 	.word	0x08003c98
 80005d4:	000003ff 	.word	0x000003ff
 80005d8:	feffffff 	.word	0xfeffffff
 80005dc:	000007fe 	.word	0x000007fe
 80005e0:	000003f3 	.word	0x000003f3
 80005e4:	fffffc0d 	.word	0xfffffc0d
 80005e8:	fffff801 	.word	0xfffff801
 80005ec:	2303      	movs	r3, #3
 80005ee:	0032      	movs	r2, r6
 80005f0:	431c      	orrs	r4, r3
 80005f2:	e673      	b.n	80002dc <__aeabi_ddiv+0x90>
 80005f4:	469a      	mov	sl, r3
 80005f6:	2303      	movs	r3, #3
 80005f8:	46d9      	mov	r9, fp
 80005fa:	240c      	movs	r4, #12
 80005fc:	9303      	str	r3, [sp, #12]
 80005fe:	e64d      	b.n	800029c <__aeabi_ddiv+0x50>
 8000600:	2300      	movs	r3, #0
 8000602:	4698      	mov	r8, r3
 8000604:	469a      	mov	sl, r3
 8000606:	3301      	adds	r3, #1
 8000608:	2404      	movs	r4, #4
 800060a:	9303      	str	r3, [sp, #12]
 800060c:	e646      	b.n	800029c <__aeabi_ddiv+0x50>
 800060e:	2301      	movs	r3, #1
 8000610:	431c      	orrs	r4, r3
 8000612:	2300      	movs	r3, #0
 8000614:	469b      	mov	fp, r3
 8000616:	3301      	adds	r3, #1
 8000618:	e660      	b.n	80002dc <__aeabi_ddiv+0x90>
 800061a:	2300      	movs	r3, #0
 800061c:	2480      	movs	r4, #128	@ 0x80
 800061e:	4698      	mov	r8, r3
 8000620:	2600      	movs	r6, #0
 8000622:	4b92      	ldr	r3, [pc, #584]	@ (800086c <__aeabi_ddiv+0x620>)
 8000624:	0324      	lsls	r4, r4, #12
 8000626:	e671      	b.n	800030c <__aeabi_ddiv+0xc0>
 8000628:	2201      	movs	r2, #1
 800062a:	4252      	negs	r2, r2
 800062c:	2101      	movs	r1, #1
 800062e:	1ac9      	subs	r1, r1, r3
 8000630:	2938      	cmp	r1, #56	@ 0x38
 8000632:	dd00      	ble.n	8000636 <__aeabi_ddiv+0x3ea>
 8000634:	e666      	b.n	8000304 <__aeabi_ddiv+0xb8>
 8000636:	291f      	cmp	r1, #31
 8000638:	dc00      	bgt.n	800063c <__aeabi_ddiv+0x3f0>
 800063a:	e0ab      	b.n	8000794 <__aeabi_ddiv+0x548>
 800063c:	201f      	movs	r0, #31
 800063e:	4240      	negs	r0, r0
 8000640:	1ac3      	subs	r3, r0, r3
 8000642:	4658      	mov	r0, fp
 8000644:	40d8      	lsrs	r0, r3
 8000646:	0003      	movs	r3, r0
 8000648:	2920      	cmp	r1, #32
 800064a:	d004      	beq.n	8000656 <__aeabi_ddiv+0x40a>
 800064c:	4658      	mov	r0, fp
 800064e:	4988      	ldr	r1, [pc, #544]	@ (8000870 <__aeabi_ddiv+0x624>)
 8000650:	4451      	add	r1, sl
 8000652:	4088      	lsls	r0, r1
 8000654:	4302      	orrs	r2, r0
 8000656:	1e51      	subs	r1, r2, #1
 8000658:	418a      	sbcs	r2, r1
 800065a:	431a      	orrs	r2, r3
 800065c:	2307      	movs	r3, #7
 800065e:	0019      	movs	r1, r3
 8000660:	2400      	movs	r4, #0
 8000662:	4011      	ands	r1, r2
 8000664:	4213      	tst	r3, r2
 8000666:	d00c      	beq.n	8000682 <__aeabi_ddiv+0x436>
 8000668:	230f      	movs	r3, #15
 800066a:	4013      	ands	r3, r2
 800066c:	2b04      	cmp	r3, #4
 800066e:	d100      	bne.n	8000672 <__aeabi_ddiv+0x426>
 8000670:	e0f9      	b.n	8000866 <__aeabi_ddiv+0x61a>
 8000672:	1d11      	adds	r1, r2, #4
 8000674:	4291      	cmp	r1, r2
 8000676:	419b      	sbcs	r3, r3
 8000678:	000a      	movs	r2, r1
 800067a:	425b      	negs	r3, r3
 800067c:	0759      	lsls	r1, r3, #29
 800067e:	025b      	lsls	r3, r3, #9
 8000680:	0b1c      	lsrs	r4, r3, #12
 8000682:	08d2      	lsrs	r2, r2, #3
 8000684:	430a      	orrs	r2, r1
 8000686:	4690      	mov	r8, r2
 8000688:	2300      	movs	r3, #0
 800068a:	e63f      	b.n	800030c <__aeabi_ddiv+0xc0>
 800068c:	2480      	movs	r4, #128	@ 0x80
 800068e:	464b      	mov	r3, r9
 8000690:	0324      	lsls	r4, r4, #12
 8000692:	4223      	tst	r3, r4
 8000694:	d009      	beq.n	80006aa <__aeabi_ddiv+0x45e>
 8000696:	465b      	mov	r3, fp
 8000698:	4223      	tst	r3, r4
 800069a:	d106      	bne.n	80006aa <__aeabi_ddiv+0x45e>
 800069c:	431c      	orrs	r4, r3
 800069e:	0324      	lsls	r4, r4, #12
 80006a0:	002e      	movs	r6, r5
 80006a2:	4690      	mov	r8, r2
 80006a4:	4b71      	ldr	r3, [pc, #452]	@ (800086c <__aeabi_ddiv+0x620>)
 80006a6:	0b24      	lsrs	r4, r4, #12
 80006a8:	e630      	b.n	800030c <__aeabi_ddiv+0xc0>
 80006aa:	2480      	movs	r4, #128	@ 0x80
 80006ac:	464b      	mov	r3, r9
 80006ae:	0324      	lsls	r4, r4, #12
 80006b0:	431c      	orrs	r4, r3
 80006b2:	0324      	lsls	r4, r4, #12
 80006b4:	9e02      	ldr	r6, [sp, #8]
 80006b6:	4b6d      	ldr	r3, [pc, #436]	@ (800086c <__aeabi_ddiv+0x620>)
 80006b8:	0b24      	lsrs	r4, r4, #12
 80006ba:	e627      	b.n	800030c <__aeabi_ddiv+0xc0>
 80006bc:	2b00      	cmp	r3, #0
 80006be:	d100      	bne.n	80006c2 <__aeabi_ddiv+0x476>
 80006c0:	e700      	b.n	80004c4 <__aeabi_ddiv+0x278>
 80006c2:	9800      	ldr	r0, [sp, #0]
 80006c4:	1e51      	subs	r1, r2, #1
 80006c6:	4684      	mov	ip, r0
 80006c8:	4464      	add	r4, ip
 80006ca:	4284      	cmp	r4, r0
 80006cc:	d200      	bcs.n	80006d0 <__aeabi_ddiv+0x484>
 80006ce:	e084      	b.n	80007da <__aeabi_ddiv+0x58e>
 80006d0:	42bc      	cmp	r4, r7
 80006d2:	d200      	bcs.n	80006d6 <__aeabi_ddiv+0x48a>
 80006d4:	e0ae      	b.n	8000834 <__aeabi_ddiv+0x5e8>
 80006d6:	d100      	bne.n	80006da <__aeabi_ddiv+0x48e>
 80006d8:	e0c1      	b.n	800085e <__aeabi_ddiv+0x612>
 80006da:	000a      	movs	r2, r1
 80006dc:	e6f0      	b.n	80004c0 <__aeabi_ddiv+0x274>
 80006de:	4542      	cmp	r2, r8
 80006e0:	d900      	bls.n	80006e4 <__aeabi_ddiv+0x498>
 80006e2:	e62c      	b.n	800033e <__aeabi_ddiv+0xf2>
 80006e4:	464b      	mov	r3, r9
 80006e6:	07dc      	lsls	r4, r3, #31
 80006e8:	0858      	lsrs	r0, r3, #1
 80006ea:	4643      	mov	r3, r8
 80006ec:	085b      	lsrs	r3, r3, #1
 80006ee:	431c      	orrs	r4, r3
 80006f0:	4643      	mov	r3, r8
 80006f2:	07df      	lsls	r7, r3, #31
 80006f4:	e62a      	b.n	800034c <__aeabi_ddiv+0x100>
 80006f6:	f000 fc33 	bl	8000f60 <__clzsi2>
 80006fa:	2315      	movs	r3, #21
 80006fc:	469c      	mov	ip, r3
 80006fe:	4484      	add	ip, r0
 8000700:	0002      	movs	r2, r0
 8000702:	4663      	mov	r3, ip
 8000704:	3220      	adds	r2, #32
 8000706:	2b1c      	cmp	r3, #28
 8000708:	dc00      	bgt.n	800070c <__aeabi_ddiv+0x4c0>
 800070a:	e72e      	b.n	800056a <__aeabi_ddiv+0x31e>
 800070c:	0023      	movs	r3, r4
 800070e:	3808      	subs	r0, #8
 8000710:	4083      	lsls	r3, r0
 8000712:	4699      	mov	r9, r3
 8000714:	2300      	movs	r3, #0
 8000716:	4698      	mov	r8, r3
 8000718:	e736      	b.n	8000588 <__aeabi_ddiv+0x33c>
 800071a:	f000 fc21 	bl	8000f60 <__clzsi2>
 800071e:	0002      	movs	r2, r0
 8000720:	0003      	movs	r3, r0
 8000722:	3215      	adds	r2, #21
 8000724:	3320      	adds	r3, #32
 8000726:	2a1c      	cmp	r2, #28
 8000728:	dc00      	bgt.n	800072c <__aeabi_ddiv+0x4e0>
 800072a:	e6fb      	b.n	8000524 <__aeabi_ddiv+0x2d8>
 800072c:	9900      	ldr	r1, [sp, #0]
 800072e:	3808      	subs	r0, #8
 8000730:	4081      	lsls	r1, r0
 8000732:	2200      	movs	r2, #0
 8000734:	468b      	mov	fp, r1
 8000736:	e702      	b.n	800053e <__aeabi_ddiv+0x2f2>
 8000738:	9900      	ldr	r1, [sp, #0]
 800073a:	3b01      	subs	r3, #1
 800073c:	468c      	mov	ip, r1
 800073e:	4464      	add	r4, ip
 8000740:	42a1      	cmp	r1, r4
 8000742:	d900      	bls.n	8000746 <__aeabi_ddiv+0x4fa>
 8000744:	e69a      	b.n	800047c <__aeabi_ddiv+0x230>
 8000746:	42a2      	cmp	r2, r4
 8000748:	d800      	bhi.n	800074c <__aeabi_ddiv+0x500>
 800074a:	e697      	b.n	800047c <__aeabi_ddiv+0x230>
 800074c:	1e83      	subs	r3, r0, #2
 800074e:	4464      	add	r4, ip
 8000750:	e694      	b.n	800047c <__aeabi_ddiv+0x230>
 8000752:	46ac      	mov	ip, r5
 8000754:	4461      	add	r1, ip
 8000756:	3f01      	subs	r7, #1
 8000758:	428d      	cmp	r5, r1
 800075a:	d900      	bls.n	800075e <__aeabi_ddiv+0x512>
 800075c:	e680      	b.n	8000460 <__aeabi_ddiv+0x214>
 800075e:	428a      	cmp	r2, r1
 8000760:	d800      	bhi.n	8000764 <__aeabi_ddiv+0x518>
 8000762:	e67d      	b.n	8000460 <__aeabi_ddiv+0x214>
 8000764:	1e87      	subs	r7, r0, #2
 8000766:	4461      	add	r1, ip
 8000768:	e67a      	b.n	8000460 <__aeabi_ddiv+0x214>
 800076a:	4285      	cmp	r5, r0
 800076c:	d000      	beq.n	8000770 <__aeabi_ddiv+0x524>
 800076e:	e65f      	b.n	8000430 <__aeabi_ddiv+0x1e4>
 8000770:	45b9      	cmp	r9, r7
 8000772:	d900      	bls.n	8000776 <__aeabi_ddiv+0x52a>
 8000774:	e65c      	b.n	8000430 <__aeabi_ddiv+0x1e4>
 8000776:	e656      	b.n	8000426 <__aeabi_ddiv+0x1da>
 8000778:	42a2      	cmp	r2, r4
 800077a:	d800      	bhi.n	800077e <__aeabi_ddiv+0x532>
 800077c:	e61a      	b.n	80003b4 <__aeabi_ddiv+0x168>
 800077e:	1e83      	subs	r3, r0, #2
 8000780:	4464      	add	r4, ip
 8000782:	e617      	b.n	80003b4 <__aeabi_ddiv+0x168>
 8000784:	428a      	cmp	r2, r1
 8000786:	d800      	bhi.n	800078a <__aeabi_ddiv+0x53e>
 8000788:	e600      	b.n	800038c <__aeabi_ddiv+0x140>
 800078a:	46ac      	mov	ip, r5
 800078c:	1e83      	subs	r3, r0, #2
 800078e:	4698      	mov	r8, r3
 8000790:	4461      	add	r1, ip
 8000792:	e5fb      	b.n	800038c <__aeabi_ddiv+0x140>
 8000794:	4837      	ldr	r0, [pc, #220]	@ (8000874 <__aeabi_ddiv+0x628>)
 8000796:	0014      	movs	r4, r2
 8000798:	4450      	add	r0, sl
 800079a:	4082      	lsls	r2, r0
 800079c:	465b      	mov	r3, fp
 800079e:	0017      	movs	r7, r2
 80007a0:	4083      	lsls	r3, r0
 80007a2:	40cc      	lsrs	r4, r1
 80007a4:	1e7a      	subs	r2, r7, #1
 80007a6:	4197      	sbcs	r7, r2
 80007a8:	4323      	orrs	r3, r4
 80007aa:	433b      	orrs	r3, r7
 80007ac:	001a      	movs	r2, r3
 80007ae:	465b      	mov	r3, fp
 80007b0:	40cb      	lsrs	r3, r1
 80007b2:	0751      	lsls	r1, r2, #29
 80007b4:	d009      	beq.n	80007ca <__aeabi_ddiv+0x57e>
 80007b6:	210f      	movs	r1, #15
 80007b8:	4011      	ands	r1, r2
 80007ba:	2904      	cmp	r1, #4
 80007bc:	d005      	beq.n	80007ca <__aeabi_ddiv+0x57e>
 80007be:	1d11      	adds	r1, r2, #4
 80007c0:	4291      	cmp	r1, r2
 80007c2:	4192      	sbcs	r2, r2
 80007c4:	4252      	negs	r2, r2
 80007c6:	189b      	adds	r3, r3, r2
 80007c8:	000a      	movs	r2, r1
 80007ca:	0219      	lsls	r1, r3, #8
 80007cc:	d400      	bmi.n	80007d0 <__aeabi_ddiv+0x584>
 80007ce:	e755      	b.n	800067c <__aeabi_ddiv+0x430>
 80007d0:	2200      	movs	r2, #0
 80007d2:	2301      	movs	r3, #1
 80007d4:	2400      	movs	r4, #0
 80007d6:	4690      	mov	r8, r2
 80007d8:	e598      	b.n	800030c <__aeabi_ddiv+0xc0>
 80007da:	000a      	movs	r2, r1
 80007dc:	42bc      	cmp	r4, r7
 80007de:	d000      	beq.n	80007e2 <__aeabi_ddiv+0x596>
 80007e0:	e66e      	b.n	80004c0 <__aeabi_ddiv+0x274>
 80007e2:	454b      	cmp	r3, r9
 80007e4:	d000      	beq.n	80007e8 <__aeabi_ddiv+0x59c>
 80007e6:	e66b      	b.n	80004c0 <__aeabi_ddiv+0x274>
 80007e8:	e66c      	b.n	80004c4 <__aeabi_ddiv+0x278>
 80007ea:	4b23      	ldr	r3, [pc, #140]	@ (8000878 <__aeabi_ddiv+0x62c>)
 80007ec:	4a23      	ldr	r2, [pc, #140]	@ (800087c <__aeabi_ddiv+0x630>)
 80007ee:	4453      	add	r3, sl
 80007f0:	4592      	cmp	sl, r2
 80007f2:	da00      	bge.n	80007f6 <__aeabi_ddiv+0x5aa>
 80007f4:	e718      	b.n	8000628 <__aeabi_ddiv+0x3dc>
 80007f6:	2101      	movs	r1, #1
 80007f8:	4249      	negs	r1, r1
 80007fa:	1d0a      	adds	r2, r1, #4
 80007fc:	428a      	cmp	r2, r1
 80007fe:	4189      	sbcs	r1, r1
 8000800:	4249      	negs	r1, r1
 8000802:	448b      	add	fp, r1
 8000804:	e666      	b.n	80004d4 <__aeabi_ddiv+0x288>
 8000806:	210f      	movs	r1, #15
 8000808:	4011      	ands	r1, r2
 800080a:	2904      	cmp	r1, #4
 800080c:	d100      	bne.n	8000810 <__aeabi_ddiv+0x5c4>
 800080e:	e661      	b.n	80004d4 <__aeabi_ddiv+0x288>
 8000810:	0011      	movs	r1, r2
 8000812:	e7f2      	b.n	80007fa <__aeabi_ddiv+0x5ae>
 8000814:	42bc      	cmp	r4, r7
 8000816:	d800      	bhi.n	800081a <__aeabi_ddiv+0x5ce>
 8000818:	e60a      	b.n	8000430 <__aeabi_ddiv+0x1e4>
 800081a:	2302      	movs	r3, #2
 800081c:	425b      	negs	r3, r3
 800081e:	469c      	mov	ip, r3
 8000820:	9900      	ldr	r1, [sp, #0]
 8000822:	444f      	add	r7, r9
 8000824:	454f      	cmp	r7, r9
 8000826:	419b      	sbcs	r3, r3
 8000828:	44e3      	add	fp, ip
 800082a:	468c      	mov	ip, r1
 800082c:	425b      	negs	r3, r3
 800082e:	4463      	add	r3, ip
 8000830:	18c0      	adds	r0, r0, r3
 8000832:	e5ff      	b.n	8000434 <__aeabi_ddiv+0x1e8>
 8000834:	4649      	mov	r1, r9
 8000836:	9d00      	ldr	r5, [sp, #0]
 8000838:	0048      	lsls	r0, r1, #1
 800083a:	4548      	cmp	r0, r9
 800083c:	4189      	sbcs	r1, r1
 800083e:	46ac      	mov	ip, r5
 8000840:	4249      	negs	r1, r1
 8000842:	4461      	add	r1, ip
 8000844:	4681      	mov	r9, r0
 8000846:	3a02      	subs	r2, #2
 8000848:	1864      	adds	r4, r4, r1
 800084a:	e7c7      	b.n	80007dc <__aeabi_ddiv+0x590>
 800084c:	2480      	movs	r4, #128	@ 0x80
 800084e:	465b      	mov	r3, fp
 8000850:	0324      	lsls	r4, r4, #12
 8000852:	431c      	orrs	r4, r3
 8000854:	0324      	lsls	r4, r4, #12
 8000856:	4690      	mov	r8, r2
 8000858:	4b04      	ldr	r3, [pc, #16]	@ (800086c <__aeabi_ddiv+0x620>)
 800085a:	0b24      	lsrs	r4, r4, #12
 800085c:	e556      	b.n	800030c <__aeabi_ddiv+0xc0>
 800085e:	4599      	cmp	r9, r3
 8000860:	d3e8      	bcc.n	8000834 <__aeabi_ddiv+0x5e8>
 8000862:	000a      	movs	r2, r1
 8000864:	e7bd      	b.n	80007e2 <__aeabi_ddiv+0x596>
 8000866:	2300      	movs	r3, #0
 8000868:	e708      	b.n	800067c <__aeabi_ddiv+0x430>
 800086a:	46c0      	nop			@ (mov r8, r8)
 800086c:	000007ff 	.word	0x000007ff
 8000870:	0000043e 	.word	0x0000043e
 8000874:	0000041e 	.word	0x0000041e
 8000878:	000003ff 	.word	0x000003ff
 800087c:	fffffc02 	.word	0xfffffc02

08000880 <__aeabi_dmul>:
 8000880:	b5f0      	push	{r4, r5, r6, r7, lr}
 8000882:	4657      	mov	r7, sl
 8000884:	46de      	mov	lr, fp
 8000886:	464e      	mov	r6, r9
 8000888:	4645      	mov	r5, r8
 800088a:	b5e0      	push	{r5, r6, r7, lr}
 800088c:	001f      	movs	r7, r3
 800088e:	030b      	lsls	r3, r1, #12
 8000890:	0b1b      	lsrs	r3, r3, #12
 8000892:	0016      	movs	r6, r2
 8000894:	469a      	mov	sl, r3
 8000896:	0fca      	lsrs	r2, r1, #31
 8000898:	004b      	lsls	r3, r1, #1
 800089a:	0004      	movs	r4, r0
 800089c:	4693      	mov	fp, r2
 800089e:	b087      	sub	sp, #28
 80008a0:	0d5b      	lsrs	r3, r3, #21
 80008a2:	d100      	bne.n	80008a6 <__aeabi_dmul+0x26>
 80008a4:	e0d5      	b.n	8000a52 <__aeabi_dmul+0x1d2>
 80008a6:	4abb      	ldr	r2, [pc, #748]	@ (8000b94 <__aeabi_dmul+0x314>)
 80008a8:	4293      	cmp	r3, r2
 80008aa:	d100      	bne.n	80008ae <__aeabi_dmul+0x2e>
 80008ac:	e0f8      	b.n	8000aa0 <__aeabi_dmul+0x220>
 80008ae:	4651      	mov	r1, sl
 80008b0:	0f42      	lsrs	r2, r0, #29
 80008b2:	00c9      	lsls	r1, r1, #3
 80008b4:	430a      	orrs	r2, r1
 80008b6:	2180      	movs	r1, #128	@ 0x80
 80008b8:	0409      	lsls	r1, r1, #16
 80008ba:	4311      	orrs	r1, r2
 80008bc:	00c2      	lsls	r2, r0, #3
 80008be:	4691      	mov	r9, r2
 80008c0:	4ab5      	ldr	r2, [pc, #724]	@ (8000b98 <__aeabi_dmul+0x318>)
 80008c2:	468a      	mov	sl, r1
 80008c4:	189d      	adds	r5, r3, r2
 80008c6:	2300      	movs	r3, #0
 80008c8:	4698      	mov	r8, r3
 80008ca:	9302      	str	r3, [sp, #8]
 80008cc:	033c      	lsls	r4, r7, #12
 80008ce:	007b      	lsls	r3, r7, #1
 80008d0:	0ffa      	lsrs	r2, r7, #31
 80008d2:	0030      	movs	r0, r6
 80008d4:	0b24      	lsrs	r4, r4, #12
 80008d6:	0d5b      	lsrs	r3, r3, #21
 80008d8:	9200      	str	r2, [sp, #0]
 80008da:	d100      	bne.n	80008de <__aeabi_dmul+0x5e>
 80008dc:	e096      	b.n	8000a0c <__aeabi_dmul+0x18c>
 80008de:	4aad      	ldr	r2, [pc, #692]	@ (8000b94 <__aeabi_dmul+0x314>)
 80008e0:	4293      	cmp	r3, r2
 80008e2:	d031      	beq.n	8000948 <__aeabi_dmul+0xc8>
 80008e4:	0f72      	lsrs	r2, r6, #29
 80008e6:	00e4      	lsls	r4, r4, #3
 80008e8:	4322      	orrs	r2, r4
 80008ea:	2480      	movs	r4, #128	@ 0x80
 80008ec:	0424      	lsls	r4, r4, #16
 80008ee:	4314      	orrs	r4, r2
 80008f0:	4aa9      	ldr	r2, [pc, #676]	@ (8000b98 <__aeabi_dmul+0x318>)
 80008f2:	00f0      	lsls	r0, r6, #3
 80008f4:	4694      	mov	ip, r2
 80008f6:	4463      	add	r3, ip
 80008f8:	195b      	adds	r3, r3, r5
 80008fa:	1c5a      	adds	r2, r3, #1
 80008fc:	9201      	str	r2, [sp, #4]
 80008fe:	4642      	mov	r2, r8
 8000900:	2600      	movs	r6, #0
 8000902:	2a0a      	cmp	r2, #10
 8000904:	dc42      	bgt.n	800098c <__aeabi_dmul+0x10c>
 8000906:	465a      	mov	r2, fp
 8000908:	9900      	ldr	r1, [sp, #0]
 800090a:	404a      	eors	r2, r1
 800090c:	4693      	mov	fp, r2
 800090e:	4642      	mov	r2, r8
 8000910:	2a02      	cmp	r2, #2
 8000912:	dc32      	bgt.n	800097a <__aeabi_dmul+0xfa>
 8000914:	3a01      	subs	r2, #1
 8000916:	2a01      	cmp	r2, #1
 8000918:	d900      	bls.n	800091c <__aeabi_dmul+0x9c>
 800091a:	e149      	b.n	8000bb0 <__aeabi_dmul+0x330>
 800091c:	2e02      	cmp	r6, #2
 800091e:	d100      	bne.n	8000922 <__aeabi_dmul+0xa2>
 8000920:	e0ca      	b.n	8000ab8 <__aeabi_dmul+0x238>
 8000922:	2e01      	cmp	r6, #1
 8000924:	d13d      	bne.n	80009a2 <__aeabi_dmul+0x122>
 8000926:	2300      	movs	r3, #0
 8000928:	2400      	movs	r4, #0
 800092a:	2200      	movs	r2, #0
 800092c:	0010      	movs	r0, r2
 800092e:	465a      	mov	r2, fp
 8000930:	051b      	lsls	r3, r3, #20
 8000932:	4323      	orrs	r3, r4
 8000934:	07d2      	lsls	r2, r2, #31
 8000936:	4313      	orrs	r3, r2
 8000938:	0019      	movs	r1, r3
 800093a:	b007      	add	sp, #28
 800093c:	bcf0      	pop	{r4, r5, r6, r7}
 800093e:	46bb      	mov	fp, r7
 8000940:	46b2      	mov	sl, r6
 8000942:	46a9      	mov	r9, r5
 8000944:	46a0      	mov	r8, r4
 8000946:	bdf0      	pop	{r4, r5, r6, r7, pc}
 8000948:	4b92      	ldr	r3, [pc, #584]	@ (8000b94 <__aeabi_dmul+0x314>)
 800094a:	4326      	orrs	r6, r4
 800094c:	18eb      	adds	r3, r5, r3
 800094e:	2e00      	cmp	r6, #0
 8000950:	d100      	bne.n	8000954 <__aeabi_dmul+0xd4>
 8000952:	e0bb      	b.n	8000acc <__aeabi_dmul+0x24c>
 8000954:	2203      	movs	r2, #3
 8000956:	4641      	mov	r1, r8
 8000958:	4311      	orrs	r1, r2
 800095a:	465a      	mov	r2, fp
 800095c:	4688      	mov	r8, r1
 800095e:	9900      	ldr	r1, [sp, #0]
 8000960:	404a      	eors	r2, r1
 8000962:	2180      	movs	r1, #128	@ 0x80
 8000964:	0109      	lsls	r1, r1, #4
 8000966:	468c      	mov	ip, r1
 8000968:	0029      	movs	r1, r5
 800096a:	4461      	add	r1, ip
 800096c:	9101      	str	r1, [sp, #4]
 800096e:	4641      	mov	r1, r8
 8000970:	290a      	cmp	r1, #10
 8000972:	dd00      	ble.n	8000976 <__aeabi_dmul+0xf6>
 8000974:	e233      	b.n	8000dde <__aeabi_dmul+0x55e>
 8000976:	4693      	mov	fp, r2
 8000978:	2603      	movs	r6, #3
 800097a:	4642      	mov	r2, r8
 800097c:	2701      	movs	r7, #1
 800097e:	4097      	lsls	r7, r2
 8000980:	21a6      	movs	r1, #166	@ 0xa6
 8000982:	003a      	movs	r2, r7
 8000984:	00c9      	lsls	r1, r1, #3
 8000986:	400a      	ands	r2, r1
 8000988:	420f      	tst	r7, r1
 800098a:	d031      	beq.n	80009f0 <__aeabi_dmul+0x170>
 800098c:	9e02      	ldr	r6, [sp, #8]
 800098e:	2e02      	cmp	r6, #2
 8000990:	d100      	bne.n	8000994 <__aeabi_dmul+0x114>
 8000992:	e235      	b.n	8000e00 <__aeabi_dmul+0x580>
 8000994:	2e03      	cmp	r6, #3
 8000996:	d100      	bne.n	800099a <__aeabi_dmul+0x11a>
 8000998:	e1d2      	b.n	8000d40 <__aeabi_dmul+0x4c0>
 800099a:	4654      	mov	r4, sl
 800099c:	4648      	mov	r0, r9
 800099e:	2e01      	cmp	r6, #1
 80009a0:	d0c1      	beq.n	8000926 <__aeabi_dmul+0xa6>
 80009a2:	9a01      	ldr	r2, [sp, #4]
 80009a4:	4b7d      	ldr	r3, [pc, #500]	@ (8000b9c <__aeabi_dmul+0x31c>)
 80009a6:	4694      	mov	ip, r2
 80009a8:	4463      	add	r3, ip
 80009aa:	2b00      	cmp	r3, #0
 80009ac:	dc00      	bgt.n	80009b0 <__aeabi_dmul+0x130>
 80009ae:	e0c0      	b.n	8000b32 <__aeabi_dmul+0x2b2>
 80009b0:	0742      	lsls	r2, r0, #29
 80009b2:	d009      	beq.n	80009c8 <__aeabi_dmul+0x148>
 80009b4:	220f      	movs	r2, #15
 80009b6:	4002      	ands	r2, r0
 80009b8:	2a04      	cmp	r2, #4
 80009ba:	d005      	beq.n	80009c8 <__aeabi_dmul+0x148>
 80009bc:	1d02      	adds	r2, r0, #4
 80009be:	4282      	cmp	r2, r0
 80009c0:	4180      	sbcs	r0, r0
 80009c2:	4240      	negs	r0, r0
 80009c4:	1824      	adds	r4, r4, r0
 80009c6:	0010      	movs	r0, r2
 80009c8:	01e2      	lsls	r2, r4, #7
 80009ca:	d506      	bpl.n	80009da <__aeabi_dmul+0x15a>
 80009cc:	4b74      	ldr	r3, [pc, #464]	@ (8000ba0 <__aeabi_dmul+0x320>)
 80009ce:	9a01      	ldr	r2, [sp, #4]
 80009d0:	401c      	ands	r4, r3
 80009d2:	2380      	movs	r3, #128	@ 0x80
 80009d4:	4694      	mov	ip, r2
 80009d6:	00db      	lsls	r3, r3, #3
 80009d8:	4463      	add	r3, ip
 80009da:	4a72      	ldr	r2, [pc, #456]	@ (8000ba4 <__aeabi_dmul+0x324>)
 80009dc:	4293      	cmp	r3, r2
 80009de:	dc6b      	bgt.n	8000ab8 <__aeabi_dmul+0x238>
 80009e0:	0762      	lsls	r2, r4, #29
 80009e2:	08c0      	lsrs	r0, r0, #3
 80009e4:	0264      	lsls	r4, r4, #9
 80009e6:	055b      	lsls	r3, r3, #21
 80009e8:	4302      	orrs	r2, r0
 80009ea:	0b24      	lsrs	r4, r4, #12
 80009ec:	0d5b      	lsrs	r3, r3, #21
 80009ee:	e79d      	b.n	800092c <__aeabi_dmul+0xac>
 80009f0:	2190      	movs	r1, #144	@ 0x90
 80009f2:	0089      	lsls	r1, r1, #2
 80009f4:	420f      	tst	r7, r1
 80009f6:	d163      	bne.n	8000ac0 <__aeabi_dmul+0x240>
 80009f8:	2288      	movs	r2, #136	@ 0x88
 80009fa:	423a      	tst	r2, r7
 80009fc:	d100      	bne.n	8000a00 <__aeabi_dmul+0x180>
 80009fe:	e0d7      	b.n	8000bb0 <__aeabi_dmul+0x330>
 8000a00:	9b00      	ldr	r3, [sp, #0]
 8000a02:	46a2      	mov	sl, r4
 8000a04:	469b      	mov	fp, r3
 8000a06:	4681      	mov	r9, r0
 8000a08:	9602      	str	r6, [sp, #8]
 8000a0a:	e7bf      	b.n	800098c <__aeabi_dmul+0x10c>
 8000a0c:	0023      	movs	r3, r4
 8000a0e:	4333      	orrs	r3, r6
 8000a10:	d100      	bne.n	8000a14 <__aeabi_dmul+0x194>
 8000a12:	e07f      	b.n	8000b14 <__aeabi_dmul+0x294>
 8000a14:	2c00      	cmp	r4, #0
 8000a16:	d100      	bne.n	8000a1a <__aeabi_dmul+0x19a>
 8000a18:	e1ad      	b.n	8000d76 <__aeabi_dmul+0x4f6>
 8000a1a:	0020      	movs	r0, r4
 8000a1c:	f000 faa0 	bl	8000f60 <__clzsi2>
 8000a20:	0002      	movs	r2, r0
 8000a22:	0003      	movs	r3, r0
 8000a24:	3a0b      	subs	r2, #11
 8000a26:	201d      	movs	r0, #29
 8000a28:	0019      	movs	r1, r3
 8000a2a:	1a82      	subs	r2, r0, r2
 8000a2c:	0030      	movs	r0, r6
 8000a2e:	3908      	subs	r1, #8
 8000a30:	40d0      	lsrs	r0, r2
 8000a32:	408c      	lsls	r4, r1
 8000a34:	4304      	orrs	r4, r0
 8000a36:	0030      	movs	r0, r6
 8000a38:	4088      	lsls	r0, r1
 8000a3a:	4a5b      	ldr	r2, [pc, #364]	@ (8000ba8 <__aeabi_dmul+0x328>)
 8000a3c:	1aeb      	subs	r3, r5, r3
 8000a3e:	4694      	mov	ip, r2
 8000a40:	4463      	add	r3, ip
 8000a42:	1c5a      	adds	r2, r3, #1
 8000a44:	9201      	str	r2, [sp, #4]
 8000a46:	4642      	mov	r2, r8
 8000a48:	2600      	movs	r6, #0
 8000a4a:	2a0a      	cmp	r2, #10
 8000a4c:	dc00      	bgt.n	8000a50 <__aeabi_dmul+0x1d0>
 8000a4e:	e75a      	b.n	8000906 <__aeabi_dmul+0x86>
 8000a50:	e79c      	b.n	800098c <__aeabi_dmul+0x10c>
 8000a52:	4653      	mov	r3, sl
 8000a54:	4303      	orrs	r3, r0
 8000a56:	4699      	mov	r9, r3
 8000a58:	d054      	beq.n	8000b04 <__aeabi_dmul+0x284>
 8000a5a:	4653      	mov	r3, sl
 8000a5c:	2b00      	cmp	r3, #0
 8000a5e:	d100      	bne.n	8000a62 <__aeabi_dmul+0x1e2>
 8000a60:	e177      	b.n	8000d52 <__aeabi_dmul+0x4d2>
 8000a62:	4650      	mov	r0, sl
 8000a64:	f000 fa7c 	bl	8000f60 <__clzsi2>
 8000a68:	230b      	movs	r3, #11
 8000a6a:	425b      	negs	r3, r3
 8000a6c:	469c      	mov	ip, r3
 8000a6e:	0002      	movs	r2, r0
 8000a70:	4484      	add	ip, r0
 8000a72:	0011      	movs	r1, r2
 8000a74:	4650      	mov	r0, sl
 8000a76:	3908      	subs	r1, #8
 8000a78:	4088      	lsls	r0, r1
 8000a7a:	231d      	movs	r3, #29
 8000a7c:	4680      	mov	r8, r0
 8000a7e:	4660      	mov	r0, ip
 8000a80:	1a1b      	subs	r3, r3, r0
 8000a82:	0020      	movs	r0, r4
 8000a84:	40d8      	lsrs	r0, r3
 8000a86:	0003      	movs	r3, r0
 8000a88:	4640      	mov	r0, r8
 8000a8a:	4303      	orrs	r3, r0
 8000a8c:	469a      	mov	sl, r3
 8000a8e:	0023      	movs	r3, r4
 8000a90:	408b      	lsls	r3, r1
 8000a92:	4699      	mov	r9, r3
 8000a94:	2300      	movs	r3, #0
 8000a96:	4d44      	ldr	r5, [pc, #272]	@ (8000ba8 <__aeabi_dmul+0x328>)
 8000a98:	4698      	mov	r8, r3
 8000a9a:	1aad      	subs	r5, r5, r2
 8000a9c:	9302      	str	r3, [sp, #8]
 8000a9e:	e715      	b.n	80008cc <__aeabi_dmul+0x4c>
 8000aa0:	4652      	mov	r2, sl
 8000aa2:	4302      	orrs	r2, r0
 8000aa4:	4691      	mov	r9, r2
 8000aa6:	d126      	bne.n	8000af6 <__aeabi_dmul+0x276>
 8000aa8:	2200      	movs	r2, #0
 8000aaa:	001d      	movs	r5, r3
 8000aac:	2302      	movs	r3, #2
 8000aae:	4692      	mov	sl, r2
 8000ab0:	3208      	adds	r2, #8
 8000ab2:	4690      	mov	r8, r2
 8000ab4:	9302      	str	r3, [sp, #8]
 8000ab6:	e709      	b.n	80008cc <__aeabi_dmul+0x4c>
 8000ab8:	2400      	movs	r4, #0
 8000aba:	2200      	movs	r2, #0
 8000abc:	4b35      	ldr	r3, [pc, #212]	@ (8000b94 <__aeabi_dmul+0x314>)
 8000abe:	e735      	b.n	800092c <__aeabi_dmul+0xac>
 8000ac0:	2300      	movs	r3, #0
 8000ac2:	2480      	movs	r4, #128	@ 0x80
 8000ac4:	469b      	mov	fp, r3
 8000ac6:	0324      	lsls	r4, r4, #12
 8000ac8:	4b32      	ldr	r3, [pc, #200]	@ (8000b94 <__aeabi_dmul+0x314>)
 8000aca:	e72f      	b.n	800092c <__aeabi_dmul+0xac>
 8000acc:	2202      	movs	r2, #2
 8000ace:	4641      	mov	r1, r8
 8000ad0:	4311      	orrs	r1, r2
 8000ad2:	2280      	movs	r2, #128	@ 0x80
 8000ad4:	0112      	lsls	r2, r2, #4
 8000ad6:	4694      	mov	ip, r2
 8000ad8:	002a      	movs	r2, r5
 8000ada:	4462      	add	r2, ip
 8000adc:	4688      	mov	r8, r1
 8000ade:	9201      	str	r2, [sp, #4]
 8000ae0:	290a      	cmp	r1, #10
 8000ae2:	dd00      	ble.n	8000ae6 <__aeabi_dmul+0x266>
 8000ae4:	e752      	b.n	800098c <__aeabi_dmul+0x10c>
 8000ae6:	465a      	mov	r2, fp
 8000ae8:	2000      	movs	r0, #0
 8000aea:	9900      	ldr	r1, [sp, #0]
 8000aec:	0004      	movs	r4, r0
 8000aee:	404a      	eors	r2, r1
 8000af0:	4693      	mov	fp, r2
 8000af2:	2602      	movs	r6, #2
 8000af4:	e70b      	b.n	800090e <__aeabi_dmul+0x8e>
 8000af6:	220c      	movs	r2, #12
 8000af8:	001d      	movs	r5, r3
 8000afa:	2303      	movs	r3, #3
 8000afc:	4681      	mov	r9, r0
 8000afe:	4690      	mov	r8, r2
 8000b00:	9302      	str	r3, [sp, #8]
 8000b02:	e6e3      	b.n	80008cc <__aeabi_dmul+0x4c>
 8000b04:	2300      	movs	r3, #0
 8000b06:	469a      	mov	sl, r3
 8000b08:	3304      	adds	r3, #4
 8000b0a:	4698      	mov	r8, r3
 8000b0c:	3b03      	subs	r3, #3
 8000b0e:	2500      	movs	r5, #0
 8000b10:	9302      	str	r3, [sp, #8]
 8000b12:	e6db      	b.n	80008cc <__aeabi_dmul+0x4c>
 8000b14:	4642      	mov	r2, r8
 8000b16:	3301      	adds	r3, #1
 8000b18:	431a      	orrs	r2, r3
 8000b1a:	002b      	movs	r3, r5
 8000b1c:	4690      	mov	r8, r2
 8000b1e:	1c5a      	adds	r2, r3, #1
 8000b20:	9201      	str	r2, [sp, #4]
 8000b22:	4642      	mov	r2, r8
 8000b24:	2400      	movs	r4, #0
 8000b26:	2000      	movs	r0, #0
 8000b28:	2601      	movs	r6, #1
 8000b2a:	2a0a      	cmp	r2, #10
 8000b2c:	dc00      	bgt.n	8000b30 <__aeabi_dmul+0x2b0>
 8000b2e:	e6ea      	b.n	8000906 <__aeabi_dmul+0x86>
 8000b30:	e72c      	b.n	800098c <__aeabi_dmul+0x10c>
 8000b32:	2201      	movs	r2, #1
 8000b34:	1ad2      	subs	r2, r2, r3
 8000b36:	2a38      	cmp	r2, #56	@ 0x38
 8000b38:	dd00      	ble.n	8000b3c <__aeabi_dmul+0x2bc>
 8000b3a:	e6f4      	b.n	8000926 <__aeabi_dmul+0xa6>
 8000b3c:	2a1f      	cmp	r2, #31
 8000b3e:	dc00      	bgt.n	8000b42 <__aeabi_dmul+0x2c2>
 8000b40:	e12a      	b.n	8000d98 <__aeabi_dmul+0x518>
 8000b42:	211f      	movs	r1, #31
 8000b44:	4249      	negs	r1, r1
 8000b46:	1acb      	subs	r3, r1, r3
 8000b48:	0021      	movs	r1, r4
 8000b4a:	40d9      	lsrs	r1, r3
 8000b4c:	000b      	movs	r3, r1
 8000b4e:	2a20      	cmp	r2, #32
 8000b50:	d005      	beq.n	8000b5e <__aeabi_dmul+0x2de>
 8000b52:	4a16      	ldr	r2, [pc, #88]	@ (8000bac <__aeabi_dmul+0x32c>)
 8000b54:	9d01      	ldr	r5, [sp, #4]
 8000b56:	4694      	mov	ip, r2
 8000b58:	4465      	add	r5, ip
 8000b5a:	40ac      	lsls	r4, r5
 8000b5c:	4320      	orrs	r0, r4
 8000b5e:	1e42      	subs	r2, r0, #1
 8000b60:	4190      	sbcs	r0, r2
 8000b62:	4318      	orrs	r0, r3
 8000b64:	2307      	movs	r3, #7
 8000b66:	0019      	movs	r1, r3
 8000b68:	2400      	movs	r4, #0
 8000b6a:	4001      	ands	r1, r0
 8000b6c:	4203      	tst	r3, r0
 8000b6e:	d00c      	beq.n	8000b8a <__aeabi_dmul+0x30a>
 8000b70:	230f      	movs	r3, #15
 8000b72:	4003      	ands	r3, r0
 8000b74:	2b04      	cmp	r3, #4
 8000b76:	d100      	bne.n	8000b7a <__aeabi_dmul+0x2fa>
 8000b78:	e140      	b.n	8000dfc <__aeabi_dmul+0x57c>
 8000b7a:	1d03      	adds	r3, r0, #4
 8000b7c:	4283      	cmp	r3, r0
 8000b7e:	41a4      	sbcs	r4, r4
 8000b80:	0018      	movs	r0, r3
 8000b82:	4264      	negs	r4, r4
 8000b84:	0761      	lsls	r1, r4, #29
 8000b86:	0264      	lsls	r4, r4, #9
 8000b88:	0b24      	lsrs	r4, r4, #12
 8000b8a:	08c2      	lsrs	r2, r0, #3
 8000b8c:	2300      	movs	r3, #0
 8000b8e:	430a      	orrs	r2, r1
 8000b90:	e6cc      	b.n	800092c <__aeabi_dmul+0xac>
 8000b92:	46c0      	nop			@ (mov r8, r8)
 8000b94:	000007ff 	.word	0x000007ff
 8000b98:	fffffc01 	.word	0xfffffc01
 8000b9c:	000003ff 	.word	0x000003ff
 8000ba0:	feffffff 	.word	0xfeffffff
 8000ba4:	000007fe 	.word	0x000007fe
 8000ba8:	fffffc0d 	.word	0xfffffc0d
 8000bac:	0000043e 	.word	0x0000043e
 8000bb0:	4649      	mov	r1, r9
 8000bb2:	464a      	mov	r2, r9
 8000bb4:	0409      	lsls	r1, r1, #16
 8000bb6:	0c09      	lsrs	r1, r1, #16
 8000bb8:	000d      	movs	r5, r1
 8000bba:	0c16      	lsrs	r6, r2, #16
 8000bbc:	0c02      	lsrs	r2, r0, #16
 8000bbe:	0400      	lsls	r0, r0, #16
 8000bc0:	0c00      	lsrs	r0, r0, #16
 8000bc2:	4345      	muls	r5, r0
 8000bc4:	46ac      	mov	ip, r5
 8000bc6:	0005      	movs	r5, r0
 8000bc8:	4375      	muls	r5, r6
 8000bca:	46a8      	mov	r8, r5
 8000bcc:	0015      	movs	r5, r2
 8000bce:	000f      	movs	r7, r1
 8000bd0:	4375      	muls	r5, r6
 8000bd2:	9200      	str	r2, [sp, #0]
 8000bd4:	9502      	str	r5, [sp, #8]
 8000bd6:	002a      	movs	r2, r5
 8000bd8:	9d00      	ldr	r5, [sp, #0]
 8000bda:	436f      	muls	r7, r5
 8000bdc:	4665      	mov	r5, ip
 8000bde:	0c2d      	lsrs	r5, r5, #16
 8000be0:	46a9      	mov	r9, r5
 8000be2:	4447      	add	r7, r8
 8000be4:	444f      	add	r7, r9
 8000be6:	45b8      	cmp	r8, r7
 8000be8:	d905      	bls.n	8000bf6 <__aeabi_dmul+0x376>
 8000bea:	0015      	movs	r5, r2
 8000bec:	2280      	movs	r2, #128	@ 0x80
 8000bee:	0252      	lsls	r2, r2, #9
 8000bf0:	4690      	mov	r8, r2
 8000bf2:	4445      	add	r5, r8
 8000bf4:	9502      	str	r5, [sp, #8]
 8000bf6:	0c3d      	lsrs	r5, r7, #16
 8000bf8:	9503      	str	r5, [sp, #12]
 8000bfa:	4665      	mov	r5, ip
 8000bfc:	042d      	lsls	r5, r5, #16
 8000bfe:	043f      	lsls	r7, r7, #16
 8000c00:	0c2d      	lsrs	r5, r5, #16
 8000c02:	46ac      	mov	ip, r5
 8000c04:	003d      	movs	r5, r7
 8000c06:	4465      	add	r5, ip
 8000c08:	9504      	str	r5, [sp, #16]
 8000c0a:	0c25      	lsrs	r5, r4, #16
 8000c0c:	0424      	lsls	r4, r4, #16
 8000c0e:	0c24      	lsrs	r4, r4, #16
 8000c10:	46ac      	mov	ip, r5
 8000c12:	0025      	movs	r5, r4
 8000c14:	4375      	muls	r5, r6
 8000c16:	46a8      	mov	r8, r5
 8000c18:	4665      	mov	r5, ip
 8000c1a:	000f      	movs	r7, r1
 8000c1c:	4369      	muls	r1, r5
 8000c1e:	4441      	add	r1, r8
 8000c20:	4689      	mov	r9, r1
 8000c22:	4367      	muls	r7, r4
 8000c24:	0c39      	lsrs	r1, r7, #16
 8000c26:	4449      	add	r1, r9
 8000c28:	436e      	muls	r6, r5
 8000c2a:	4588      	cmp	r8, r1
 8000c2c:	d903      	bls.n	8000c36 <__aeabi_dmul+0x3b6>
 8000c2e:	2280      	movs	r2, #128	@ 0x80
 8000c30:	0252      	lsls	r2, r2, #9
 8000c32:	4690      	mov	r8, r2
 8000c34:	4446      	add	r6, r8
 8000c36:	0c0d      	lsrs	r5, r1, #16
 8000c38:	46a8      	mov	r8, r5
 8000c3a:	0035      	movs	r5, r6
 8000c3c:	4445      	add	r5, r8
 8000c3e:	9505      	str	r5, [sp, #20]
 8000c40:	9d03      	ldr	r5, [sp, #12]
 8000c42:	043f      	lsls	r7, r7, #16
 8000c44:	46a8      	mov	r8, r5
 8000c46:	0c3f      	lsrs	r7, r7, #16
 8000c48:	0409      	lsls	r1, r1, #16
 8000c4a:	19c9      	adds	r1, r1, r7
 8000c4c:	4488      	add	r8, r1
 8000c4e:	4645      	mov	r5, r8
 8000c50:	9503      	str	r5, [sp, #12]
 8000c52:	4655      	mov	r5, sl
 8000c54:	042e      	lsls	r6, r5, #16
 8000c56:	0c36      	lsrs	r6, r6, #16
 8000c58:	0c2f      	lsrs	r7, r5, #16
 8000c5a:	0035      	movs	r5, r6
 8000c5c:	4345      	muls	r5, r0
 8000c5e:	4378      	muls	r0, r7
 8000c60:	4681      	mov	r9, r0
 8000c62:	0038      	movs	r0, r7
 8000c64:	46a8      	mov	r8, r5
 8000c66:	0c2d      	lsrs	r5, r5, #16
 8000c68:	46aa      	mov	sl, r5
 8000c6a:	9a00      	ldr	r2, [sp, #0]
 8000c6c:	4350      	muls	r0, r2
 8000c6e:	4372      	muls	r2, r6
 8000c70:	444a      	add	r2, r9
 8000c72:	4452      	add	r2, sl
 8000c74:	4591      	cmp	r9, r2
 8000c76:	d903      	bls.n	8000c80 <__aeabi_dmul+0x400>
 8000c78:	2580      	movs	r5, #128	@ 0x80
 8000c7a:	026d      	lsls	r5, r5, #9
 8000c7c:	46a9      	mov	r9, r5
 8000c7e:	4448      	add	r0, r9
 8000c80:	0c15      	lsrs	r5, r2, #16
 8000c82:	46a9      	mov	r9, r5
 8000c84:	4645      	mov	r5, r8
 8000c86:	042d      	lsls	r5, r5, #16
 8000c88:	0c2d      	lsrs	r5, r5, #16
 8000c8a:	46a8      	mov	r8, r5
 8000c8c:	4665      	mov	r5, ip
 8000c8e:	437d      	muls	r5, r7
 8000c90:	0412      	lsls	r2, r2, #16
 8000c92:	4448      	add	r0, r9
 8000c94:	4490      	add	r8, r2
 8000c96:	46a9      	mov	r9, r5
 8000c98:	0032      	movs	r2, r6
 8000c9a:	4665      	mov	r5, ip
 8000c9c:	4362      	muls	r2, r4
 8000c9e:	436e      	muls	r6, r5
 8000ca0:	437c      	muls	r4, r7
 8000ca2:	0c17      	lsrs	r7, r2, #16
 8000ca4:	1936      	adds	r6, r6, r4
 8000ca6:	19bf      	adds	r7, r7, r6
 8000ca8:	42bc      	cmp	r4, r7
 8000caa:	d903      	bls.n	8000cb4 <__aeabi_dmul+0x434>
 8000cac:	2480      	movs	r4, #128	@ 0x80
 8000cae:	0264      	lsls	r4, r4, #9
 8000cb0:	46a4      	mov	ip, r4
 8000cb2:	44e1      	add	r9, ip
 8000cb4:	9c02      	ldr	r4, [sp, #8]
 8000cb6:	9e03      	ldr	r6, [sp, #12]
 8000cb8:	46a4      	mov	ip, r4
 8000cba:	9d05      	ldr	r5, [sp, #20]
 8000cbc:	4466      	add	r6, ip
 8000cbe:	428e      	cmp	r6, r1
 8000cc0:	4189      	sbcs	r1, r1
 8000cc2:	46ac      	mov	ip, r5
 8000cc4:	0412      	lsls	r2, r2, #16
 8000cc6:	043c      	lsls	r4, r7, #16
 8000cc8:	0c12      	lsrs	r2, r2, #16
 8000cca:	18a2      	adds	r2, r4, r2
 8000ccc:	4462      	add	r2, ip
 8000cce:	4249      	negs	r1, r1
 8000cd0:	1854      	adds	r4, r2, r1
 8000cd2:	4446      	add	r6, r8
 8000cd4:	46a4      	mov	ip, r4
 8000cd6:	4546      	cmp	r6, r8
 8000cd8:	41a4      	sbcs	r4, r4
 8000cda:	4682      	mov	sl, r0
 8000cdc:	4264      	negs	r4, r4
 8000cde:	46a0      	mov	r8, r4
 8000ce0:	42aa      	cmp	r2, r5
 8000ce2:	4192      	sbcs	r2, r2
 8000ce4:	458c      	cmp	ip, r1
 8000ce6:	4189      	sbcs	r1, r1
 8000ce8:	44e2      	add	sl, ip
 8000cea:	44d0      	add	r8, sl
 8000cec:	4249      	negs	r1, r1
 8000cee:	4252      	negs	r2, r2
 8000cf0:	430a      	orrs	r2, r1
 8000cf2:	45a0      	cmp	r8, r4
 8000cf4:	41a4      	sbcs	r4, r4
 8000cf6:	4582      	cmp	sl, r0
 8000cf8:	4189      	sbcs	r1, r1
 8000cfa:	4264      	negs	r4, r4
 8000cfc:	4249      	negs	r1, r1
 8000cfe:	430c      	orrs	r4, r1
 8000d00:	4641      	mov	r1, r8
 8000d02:	0c3f      	lsrs	r7, r7, #16
 8000d04:	19d2      	adds	r2, r2, r7
 8000d06:	1912      	adds	r2, r2, r4
 8000d08:	0dcc      	lsrs	r4, r1, #23
 8000d0a:	9904      	ldr	r1, [sp, #16]
 8000d0c:	0270      	lsls	r0, r6, #9
 8000d0e:	4308      	orrs	r0, r1
 8000d10:	1e41      	subs	r1, r0, #1
 8000d12:	4188      	sbcs	r0, r1
 8000d14:	4641      	mov	r1, r8
 8000d16:	444a      	add	r2, r9
 8000d18:	0df6      	lsrs	r6, r6, #23
 8000d1a:	0252      	lsls	r2, r2, #9
 8000d1c:	4330      	orrs	r0, r6
 8000d1e:	0249      	lsls	r1, r1, #9
 8000d20:	4314      	orrs	r4, r2
 8000d22:	4308      	orrs	r0, r1
 8000d24:	01d2      	lsls	r2, r2, #7
 8000d26:	d535      	bpl.n	8000d94 <__aeabi_dmul+0x514>
 8000d28:	2201      	movs	r2, #1
 8000d2a:	0843      	lsrs	r3, r0, #1
 8000d2c:	4002      	ands	r2, r0
 8000d2e:	4313      	orrs	r3, r2
 8000d30:	07e0      	lsls	r0, r4, #31
 8000d32:	4318      	orrs	r0, r3
 8000d34:	0864      	lsrs	r4, r4, #1
 8000d36:	e634      	b.n	80009a2 <__aeabi_dmul+0x122>
 8000d38:	9b00      	ldr	r3, [sp, #0]
 8000d3a:	46a2      	mov	sl, r4
 8000d3c:	469b      	mov	fp, r3
 8000d3e:	4681      	mov	r9, r0
 8000d40:	2480      	movs	r4, #128	@ 0x80
 8000d42:	4653      	mov	r3, sl
 8000d44:	0324      	lsls	r4, r4, #12
 8000d46:	431c      	orrs	r4, r3
 8000d48:	0324      	lsls	r4, r4, #12
 8000d4a:	464a      	mov	r2, r9
 8000d4c:	4b2e      	ldr	r3, [pc, #184]	@ (8000e08 <__aeabi_dmul+0x588>)
 8000d4e:	0b24      	lsrs	r4, r4, #12
 8000d50:	e5ec      	b.n	800092c <__aeabi_dmul+0xac>
 8000d52:	f000 f905 	bl	8000f60 <__clzsi2>
 8000d56:	2315      	movs	r3, #21
 8000d58:	469c      	mov	ip, r3
 8000d5a:	4484      	add	ip, r0
 8000d5c:	0002      	movs	r2, r0
 8000d5e:	4663      	mov	r3, ip
 8000d60:	3220      	adds	r2, #32
 8000d62:	2b1c      	cmp	r3, #28
 8000d64:	dc00      	bgt.n	8000d68 <__aeabi_dmul+0x4e8>
 8000d66:	e684      	b.n	8000a72 <__aeabi_dmul+0x1f2>
 8000d68:	2300      	movs	r3, #0
 8000d6a:	4699      	mov	r9, r3
 8000d6c:	0023      	movs	r3, r4
 8000d6e:	3808      	subs	r0, #8
 8000d70:	4083      	lsls	r3, r0
 8000d72:	469a      	mov	sl, r3
 8000d74:	e68e      	b.n	8000a94 <__aeabi_dmul+0x214>
 8000d76:	f000 f8f3 	bl	8000f60 <__clzsi2>
 8000d7a:	0002      	movs	r2, r0
 8000d7c:	0003      	movs	r3, r0
 8000d7e:	3215      	adds	r2, #21
 8000d80:	3320      	adds	r3, #32
 8000d82:	2a1c      	cmp	r2, #28
 8000d84:	dc00      	bgt.n	8000d88 <__aeabi_dmul+0x508>
 8000d86:	e64e      	b.n	8000a26 <__aeabi_dmul+0x1a6>
 8000d88:	0002      	movs	r2, r0
 8000d8a:	0034      	movs	r4, r6
 8000d8c:	3a08      	subs	r2, #8
 8000d8e:	2000      	movs	r0, #0
 8000d90:	4094      	lsls	r4, r2
 8000d92:	e652      	b.n	8000a3a <__aeabi_dmul+0x1ba>
 8000d94:	9301      	str	r3, [sp, #4]
 8000d96:	e604      	b.n	80009a2 <__aeabi_dmul+0x122>
 8000d98:	4b1c      	ldr	r3, [pc, #112]	@ (8000e0c <__aeabi_dmul+0x58c>)
 8000d9a:	0021      	movs	r1, r4
 8000d9c:	469c      	mov	ip, r3
 8000d9e:	0003      	movs	r3, r0
 8000da0:	9d01      	ldr	r5, [sp, #4]
 8000da2:	40d3      	lsrs	r3, r2
 8000da4:	4465      	add	r5, ip
 8000da6:	40a9      	lsls	r1, r5
 8000da8:	4319      	orrs	r1, r3
 8000daa:	0003      	movs	r3, r0
 8000dac:	40ab      	lsls	r3, r5
 8000dae:	1e58      	subs	r0, r3, #1
 8000db0:	4183      	sbcs	r3, r0
 8000db2:	4319      	orrs	r1, r3
 8000db4:	0008      	movs	r0, r1
 8000db6:	40d4      	lsrs	r4, r2
 8000db8:	074b      	lsls	r3, r1, #29
 8000dba:	d009      	beq.n	8000dd0 <__aeabi_dmul+0x550>
 8000dbc:	230f      	movs	r3, #15
 8000dbe:	400b      	ands	r3, r1
 8000dc0:	2b04      	cmp	r3, #4
 8000dc2:	d005      	beq.n	8000dd0 <__aeabi_dmul+0x550>
 8000dc4:	1d0b      	adds	r3, r1, #4
 8000dc6:	428b      	cmp	r3, r1
 8000dc8:	4180      	sbcs	r0, r0
 8000dca:	4240      	negs	r0, r0
 8000dcc:	1824      	adds	r4, r4, r0
 8000dce:	0018      	movs	r0, r3
 8000dd0:	0223      	lsls	r3, r4, #8
 8000dd2:	d400      	bmi.n	8000dd6 <__aeabi_dmul+0x556>
 8000dd4:	e6d6      	b.n	8000b84 <__aeabi_dmul+0x304>
 8000dd6:	2301      	movs	r3, #1
 8000dd8:	2400      	movs	r4, #0
 8000dda:	2200      	movs	r2, #0
 8000ddc:	e5a6      	b.n	800092c <__aeabi_dmul+0xac>
 8000dde:	290f      	cmp	r1, #15
 8000de0:	d1aa      	bne.n	8000d38 <__aeabi_dmul+0x4b8>
 8000de2:	2380      	movs	r3, #128	@ 0x80
 8000de4:	4652      	mov	r2, sl
 8000de6:	031b      	lsls	r3, r3, #12
 8000de8:	421a      	tst	r2, r3
 8000dea:	d0a9      	beq.n	8000d40 <__aeabi_dmul+0x4c0>
 8000dec:	421c      	tst	r4, r3
 8000dee:	d1a7      	bne.n	8000d40 <__aeabi_dmul+0x4c0>
 8000df0:	431c      	orrs	r4, r3
 8000df2:	9b00      	ldr	r3, [sp, #0]
 8000df4:	0002      	movs	r2, r0
 8000df6:	469b      	mov	fp, r3
 8000df8:	4b03      	ldr	r3, [pc, #12]	@ (8000e08 <__aeabi_dmul+0x588>)
 8000dfa:	e597      	b.n	800092c <__aeabi_dmul+0xac>
 8000dfc:	2400      	movs	r4, #0
 8000dfe:	e6c1      	b.n	8000b84 <__aeabi_dmul+0x304>
 8000e00:	2400      	movs	r4, #0
 8000e02:	4b01      	ldr	r3, [pc, #4]	@ (8000e08 <__aeabi_dmul+0x588>)
 8000e04:	0022      	movs	r2, r4
 8000e06:	e591      	b.n	800092c <__aeabi_dmul+0xac>
 8000e08:	000007ff 	.word	0x000007ff
 8000e0c:	0000041e 	.word	0x0000041e

08000e10 <__aeabi_ui2d>:
 8000e10:	b510      	push	{r4, lr}
 8000e12:	1e04      	subs	r4, r0, #0
 8000e14:	d010      	beq.n	8000e38 <__aeabi_ui2d+0x28>
 8000e16:	f000 f8a3 	bl	8000f60 <__clzsi2>
 8000e1a:	4b0e      	ldr	r3, [pc, #56]	@ (8000e54 <__aeabi_ui2d+0x44>)
 8000e1c:	1a1b      	subs	r3, r3, r0
 8000e1e:	055b      	lsls	r3, r3, #21
 8000e20:	0d5b      	lsrs	r3, r3, #21
 8000e22:	280a      	cmp	r0, #10
 8000e24:	dc0f      	bgt.n	8000e46 <__aeabi_ui2d+0x36>
 8000e26:	220b      	movs	r2, #11
 8000e28:	0021      	movs	r1, r4
 8000e2a:	1a12      	subs	r2, r2, r0
 8000e2c:	40d1      	lsrs	r1, r2
 8000e2e:	3015      	adds	r0, #21
 8000e30:	030a      	lsls	r2, r1, #12
 8000e32:	4084      	lsls	r4, r0
 8000e34:	0b12      	lsrs	r2, r2, #12
 8000e36:	e001      	b.n	8000e3c <__aeabi_ui2d+0x2c>
 8000e38:	2300      	movs	r3, #0
 8000e3a:	2200      	movs	r2, #0
 8000e3c:	051b      	lsls	r3, r3, #20
 8000e3e:	4313      	orrs	r3, r2
 8000e40:	0020      	movs	r0, r4
 8000e42:	0019      	movs	r1, r3
 8000e44:	bd10      	pop	{r4, pc}
 8000e46:	0022      	movs	r2, r4
 8000e48:	380b      	subs	r0, #11
 8000e4a:	4082      	lsls	r2, r0
 8000e4c:	0312      	lsls	r2, r2, #12
 8000e4e:	2400      	movs	r4, #0
 8000e50:	0b12      	lsrs	r2, r2, #12
 8000e52:	e7f3      	b.n	8000e3c <__aeabi_ui2d+0x2c>
 8000e54:	0000041e 	.word	0x0000041e

08000e58 <__aeabi_d2f>:
 8000e58:	b5f0      	push	{r4, r5, r6, r7, lr}
 8000e5a:	004b      	lsls	r3, r1, #1
 8000e5c:	030f      	lsls	r7, r1, #12
 8000e5e:	0d5b      	lsrs	r3, r3, #21
 8000e60:	4c3b      	ldr	r4, [pc, #236]	@ (8000f50 <__aeabi_d2f+0xf8>)
 8000e62:	0f45      	lsrs	r5, r0, #29
 8000e64:	b083      	sub	sp, #12
 8000e66:	0a7f      	lsrs	r7, r7, #9
 8000e68:	1c5e      	adds	r6, r3, #1
 8000e6a:	432f      	orrs	r7, r5
 8000e6c:	9000      	str	r0, [sp, #0]
 8000e6e:	9101      	str	r1, [sp, #4]
 8000e70:	0fca      	lsrs	r2, r1, #31
 8000e72:	00c5      	lsls	r5, r0, #3
 8000e74:	4226      	tst	r6, r4
 8000e76:	d00b      	beq.n	8000e90 <__aeabi_d2f+0x38>
 8000e78:	4936      	ldr	r1, [pc, #216]	@ (8000f54 <__aeabi_d2f+0xfc>)
 8000e7a:	185c      	adds	r4, r3, r1
 8000e7c:	2cfe      	cmp	r4, #254	@ 0xfe
 8000e7e:	dd13      	ble.n	8000ea8 <__aeabi_d2f+0x50>
 8000e80:	20ff      	movs	r0, #255	@ 0xff
 8000e82:	2300      	movs	r3, #0
 8000e84:	05c0      	lsls	r0, r0, #23
 8000e86:	4318      	orrs	r0, r3
 8000e88:	07d2      	lsls	r2, r2, #31
 8000e8a:	4310      	orrs	r0, r2
 8000e8c:	b003      	add	sp, #12
 8000e8e:	bdf0      	pop	{r4, r5, r6, r7, pc}
 8000e90:	2b00      	cmp	r3, #0
 8000e92:	d102      	bne.n	8000e9a <__aeabi_d2f+0x42>
 8000e94:	2000      	movs	r0, #0
 8000e96:	2300      	movs	r3, #0
 8000e98:	e7f4      	b.n	8000e84 <__aeabi_d2f+0x2c>
 8000e9a:	433d      	orrs	r5, r7
 8000e9c:	d0f0      	beq.n	8000e80 <__aeabi_d2f+0x28>
 8000e9e:	2380      	movs	r3, #128	@ 0x80
 8000ea0:	03db      	lsls	r3, r3, #15
 8000ea2:	20ff      	movs	r0, #255	@ 0xff
 8000ea4:	433b      	orrs	r3, r7
 8000ea6:	e7ed      	b.n	8000e84 <__aeabi_d2f+0x2c>
 8000ea8:	2c00      	cmp	r4, #0
 8000eaa:	dd14      	ble.n	8000ed6 <__aeabi_d2f+0x7e>
 8000eac:	9b00      	ldr	r3, [sp, #0]
 8000eae:	00ff      	lsls	r7, r7, #3
 8000eb0:	019b      	lsls	r3, r3, #6
 8000eb2:	1e58      	subs	r0, r3, #1
 8000eb4:	4183      	sbcs	r3, r0
 8000eb6:	0f69      	lsrs	r1, r5, #29
 8000eb8:	433b      	orrs	r3, r7
 8000eba:	430b      	orrs	r3, r1
 8000ebc:	0759      	lsls	r1, r3, #29
 8000ebe:	d041      	beq.n	8000f44 <__aeabi_d2f+0xec>
 8000ec0:	210f      	movs	r1, #15
 8000ec2:	4019      	ands	r1, r3
 8000ec4:	2904      	cmp	r1, #4
 8000ec6:	d028      	beq.n	8000f1a <__aeabi_d2f+0xc2>
 8000ec8:	3304      	adds	r3, #4
 8000eca:	0159      	lsls	r1, r3, #5
 8000ecc:	d525      	bpl.n	8000f1a <__aeabi_d2f+0xc2>
 8000ece:	3401      	adds	r4, #1
 8000ed0:	2300      	movs	r3, #0
 8000ed2:	b2e0      	uxtb	r0, r4
 8000ed4:	e7d6      	b.n	8000e84 <__aeabi_d2f+0x2c>
 8000ed6:	0021      	movs	r1, r4
 8000ed8:	3117      	adds	r1, #23
 8000eda:	dbdb      	blt.n	8000e94 <__aeabi_d2f+0x3c>
 8000edc:	2180      	movs	r1, #128	@ 0x80
 8000ede:	201e      	movs	r0, #30
 8000ee0:	0409      	lsls	r1, r1, #16
 8000ee2:	4339      	orrs	r1, r7
 8000ee4:	1b00      	subs	r0, r0, r4
 8000ee6:	281f      	cmp	r0, #31
 8000ee8:	dd1b      	ble.n	8000f22 <__aeabi_d2f+0xca>
 8000eea:	2602      	movs	r6, #2
 8000eec:	4276      	negs	r6, r6
 8000eee:	1b34      	subs	r4, r6, r4
 8000ef0:	000e      	movs	r6, r1
 8000ef2:	40e6      	lsrs	r6, r4
 8000ef4:	0034      	movs	r4, r6
 8000ef6:	2820      	cmp	r0, #32
 8000ef8:	d004      	beq.n	8000f04 <__aeabi_d2f+0xac>
 8000efa:	4817      	ldr	r0, [pc, #92]	@ (8000f58 <__aeabi_d2f+0x100>)
 8000efc:	4684      	mov	ip, r0
 8000efe:	4463      	add	r3, ip
 8000f00:	4099      	lsls	r1, r3
 8000f02:	430d      	orrs	r5, r1
 8000f04:	002b      	movs	r3, r5
 8000f06:	1e59      	subs	r1, r3, #1
 8000f08:	418b      	sbcs	r3, r1
 8000f0a:	4323      	orrs	r3, r4
 8000f0c:	0759      	lsls	r1, r3, #29
 8000f0e:	d015      	beq.n	8000f3c <__aeabi_d2f+0xe4>
 8000f10:	210f      	movs	r1, #15
 8000f12:	2400      	movs	r4, #0
 8000f14:	4019      	ands	r1, r3
 8000f16:	2904      	cmp	r1, #4
 8000f18:	d117      	bne.n	8000f4a <__aeabi_d2f+0xf2>
 8000f1a:	019b      	lsls	r3, r3, #6
 8000f1c:	0a5b      	lsrs	r3, r3, #9
 8000f1e:	b2e0      	uxtb	r0, r4
 8000f20:	e7b0      	b.n	8000e84 <__aeabi_d2f+0x2c>
 8000f22:	4c0e      	ldr	r4, [pc, #56]	@ (8000f5c <__aeabi_d2f+0x104>)
 8000f24:	191c      	adds	r4, r3, r4
 8000f26:	002b      	movs	r3, r5
 8000f28:	40a5      	lsls	r5, r4
 8000f2a:	40c3      	lsrs	r3, r0
 8000f2c:	40a1      	lsls	r1, r4
 8000f2e:	1e68      	subs	r0, r5, #1
 8000f30:	4185      	sbcs	r5, r0
 8000f32:	4329      	orrs	r1, r5
 8000f34:	430b      	orrs	r3, r1
 8000f36:	2400      	movs	r4, #0
 8000f38:	0759      	lsls	r1, r3, #29
 8000f3a:	d1c1      	bne.n	8000ec0 <__aeabi_d2f+0x68>
 8000f3c:	019b      	lsls	r3, r3, #6
 8000f3e:	2000      	movs	r0, #0
 8000f40:	0a5b      	lsrs	r3, r3, #9
 8000f42:	e79f      	b.n	8000e84 <__aeabi_d2f+0x2c>
 8000f44:	08db      	lsrs	r3, r3, #3
 8000f46:	b2e0      	uxtb	r0, r4
 8000f48:	e79c      	b.n	8000e84 <__aeabi_d2f+0x2c>
 8000f4a:	3304      	adds	r3, #4
 8000f4c:	e7e5      	b.n	8000f1a <__aeabi_d2f+0xc2>
 8000f4e:	46c0      	nop			@ (mov r8, r8)
 8000f50:	000007fe 	.word	0x000007fe
 8000f54:	fffffc80 	.word	0xfffffc80
 8000f58:	fffffca2 	.word	0xfffffca2
 8000f5c:	fffffc82 	.word	0xfffffc82

08000f60 <__clzsi2>:
 8000f60:	211c      	movs	r1, #28
 8000f62:	2301      	movs	r3, #1
 8000f64:	041b      	lsls	r3, r3, #16
 8000f66:	4298      	cmp	r0, r3
 8000f68:	d301      	bcc.n	8000f6e <__clzsi2+0xe>
 8000f6a:	0c00      	lsrs	r0, r0, #16
 8000f6c:	3910      	subs	r1, #16
 8000f6e:	0a1b      	lsrs	r3, r3, #8
 8000f70:	4298      	cmp	r0, r3
 8000f72:	d301      	bcc.n	8000f78 <__clzsi2+0x18>
 8000f74:	0a00      	lsrs	r0, r0, #8
 8000f76:	3908      	subs	r1, #8
 8000f78:	091b      	lsrs	r3, r3, #4
 8000f7a:	4298      	cmp	r0, r3
 8000f7c:	d301      	bcc.n	8000f82 <__clzsi2+0x22>
 8000f7e:	0900      	lsrs	r0, r0, #4
 8000f80:	3904      	subs	r1, #4
 8000f82:	a202      	add	r2, pc, #8	@ (adr r2, 8000f8c <__clzsi2+0x2c>)
 8000f84:	5c10      	ldrb	r0, [r2, r0]
 8000f86:	1840      	adds	r0, r0, r1
 8000f88:	4770      	bx	lr
 8000f8a:	46c0      	nop			@ (mov r8, r8)
 8000f8c:	02020304 	.word	0x02020304
 8000f90:	01010101 	.word	0x01010101
	...

08000f9c <AdcProcess>:
 8000f9c:	b5f8      	push	{r3, r4, r5, r6, r7, lr}
 8000f9e:	0004      	movs	r4, r0
 8000fa0:	f000 f81e 	bl	8000fe0 <getFlashReg>
 8000fa4:	0005      	movs	r5, r0
 8000fa6:	68a0      	ldr	r0, [r4, #8]
 8000fa8:	f7ff ff32 	bl	8000e10 <__aeabi_ui2d>
 8000fac:	0002      	movs	r2, r0
 8000fae:	000b      	movs	r3, r1
 8000fb0:	4809      	ldr	r0, [pc, #36]	@ (8000fd8 <AdcProcess+0x3c>)
 8000fb2:	490a      	ldr	r1, [pc, #40]	@ (8000fdc <AdcProcess+0x40>)
 8000fb4:	f7ff f94a 	bl	800024c <__aeabi_ddiv>
 8000fb8:	0006      	movs	r6, r0
 8000fba:	6820      	ldr	r0, [r4, #0]
 8000fbc:	000f      	movs	r7, r1
 8000fbe:	f7ff ff27 	bl	8000e10 <__aeabi_ui2d>
 8000fc2:	0002      	movs	r2, r0
 8000fc4:	000b      	movs	r3, r1
 8000fc6:	0030      	movs	r0, r6
 8000fc8:	0039      	movs	r1, r7
 8000fca:	f7ff fc59 	bl	8000880 <__aeabi_dmul>
 8000fce:	f7ff ff43 	bl	8000e58 <__aeabi_d2f>
 8000fd2:	60e8      	str	r0, [r5, #12]
 8000fd4:	bdf8      	pop	{r3, r4, r5, r6, r7, pc}
 8000fd6:	46c0      	nop			@ (mov r8, r8)
 8000fd8:	33333333 	.word	0x33333333
 8000fdc:	3ff33333 	.word	0x3ff33333

08000fe0 <getFlashReg>:
 8000fe0:	4800      	ldr	r0, [pc, #0]	@ (8000fe4 <getFlashReg+0x4>)
 8000fe2:	4770      	bx	lr
 8000fe4:	2000002c 	.word	0x2000002c

08000fe8 <writeRecord>:
 8000fe8:	b5f0      	push	{r4, r5, r6, r7, lr}
 8000fea:	0895      	lsrs	r5, r2, #2
 8000fec:	b087      	sub	sp, #28
 8000fee:	000e      	movs	r6, r1
 8000ff0:	9001      	str	r0, [sp, #4]
 8000ff2:	b2ad      	uxth	r5, r5
 8000ff4:	0792      	lsls	r2, r2, #30
 8000ff6:	d001      	beq.n	8000ffc <writeRecord+0x14>
 8000ff8:	3501      	adds	r5, #1
 8000ffa:	b2ad      	uxth	r5, r5
 8000ffc:	2400      	movs	r4, #0
 8000ffe:	9402      	str	r4, [sp, #8]
 8001000:	f001 fa66 	bl	80024d0 <HAL_FLASH_Unlock>
 8001004:	2301      	movs	r3, #1
 8001006:	a902      	add	r1, sp, #8
 8001008:	a803      	add	r0, sp, #12
 800100a:	9403      	str	r4, [sp, #12]
 800100c:	9604      	str	r6, [sp, #16]
 800100e:	9305      	str	r3, [sp, #20]
 8001010:	0037      	movs	r7, r6
 8001012:	f001 fb0f 	bl	8002634 <HAL_FLASHEx_Erase>
 8001016:	42ac      	cmp	r4, r5
 8001018:	d303      	bcc.n	8001022 <writeRecord+0x3a>
 800101a:	f001 fa6d 	bl	80024f8 <HAL_FLASH_Lock>
 800101e:	b007      	add	sp, #28
 8001020:	bdf0      	pop	{r4, r5, r6, r7, pc}
 8001022:	9b01      	ldr	r3, [sp, #4]
 8001024:	0039      	movs	r1, r7
 8001026:	1b9b      	subs	r3, r3, r6
 8001028:	59da      	ldr	r2, [r3, r7]
 800102a:	2002      	movs	r0, #2
 800102c:	2300      	movs	r3, #0
 800102e:	3401      	adds	r4, #1
 8001030:	f001 fa96 	bl	8002560 <HAL_FLASH_Program>
 8001034:	b2e4      	uxtb	r4, r4
 8001036:	3704      	adds	r7, #4
 8001038:	e7ed      	b.n	8001016 <writeRecord+0x2e>
	...

0800103c <initFlash>:
 800103c:	480e      	ldr	r0, [pc, #56]	@ (8001078 <initFlash+0x3c>)
 800103e:	490f      	ldr	r1, [pc, #60]	@ (800107c <initFlash+0x40>)
 8001040:	0003      	movs	r3, r0
 8001042:	000a      	movs	r2, r1
 8001044:	b570      	push	{r4, r5, r6, lr}
 8001046:	ca70      	ldmia	r2!, {r4, r5, r6}
 8001048:	c370      	stmia	r3!, {r4, r5, r6}
 800104a:	ca70      	ldmia	r2!, {r4, r5, r6}
 800104c:	c370      	stmia	r3!, {r4, r5, r6}
 800104e:	6812      	ldr	r2, [r2, #0]
 8001050:	601a      	str	r2, [r3, #0]
 8001052:	4b0b      	ldr	r3, [pc, #44]	@ (8001080 <initFlash+0x44>)
 8001054:	0c12      	lsrs	r2, r2, #16
 8001056:	429a      	cmp	r2, r3
 8001058:	d00d      	beq.n	8001076 <initFlash+0x3a>
 800105a:	2300      	movs	r3, #0
 800105c:	22fe      	movs	r2, #254	@ 0xfe
 800105e:	6043      	str	r3, [r0, #4]
 8001060:	0592      	lsls	r2, r2, #22
 8001062:	6083      	str	r3, [r0, #8]
 8001064:	60c3      	str	r3, [r0, #12]
 8001066:	6143      	str	r3, [r0, #20]
 8001068:	4b06      	ldr	r3, [pc, #24]	@ (8001084 <initFlash+0x48>)
 800106a:	6002      	str	r2, [r0, #0]
 800106c:	6102      	str	r2, [r0, #16]
 800106e:	221c      	movs	r2, #28
 8001070:	6183      	str	r3, [r0, #24]
 8001072:	f7ff ffb9 	bl	8000fe8 <writeRecord>
 8001076:	bd70      	pop	{r4, r5, r6, pc}
 8001078:	2000002c 	.word	0x2000002c
 800107c:	08007c00 	.word	0x08007c00
 8001080:	0000ccdd 	.word	0x0000ccdd
 8001084:	ccdd0001 	.word	0xccdd0001

08001088 <writeFlash>:
 8001088:	b510      	push	{r4, lr}
 800108a:	221c      	movs	r2, #28
 800108c:	4802      	ldr	r0, [pc, #8]	@ (8001098 <writeFlash+0x10>)
 800108e:	4903      	ldr	r1, [pc, #12]	@ (800109c <writeFlash+0x14>)
 8001090:	f7ff ffaa 	bl	8000fe8 <writeRecord>
 8001094:	bd10      	pop	{r4, pc}
 8001096:	46c0      	nop			@ (mov r8, r8)
 8001098:	2000002c 	.word	0x2000002c
 800109c:	08007c00 	.word	0x08007c00

080010a0 <getID>:
 80010a0:	b570      	push	{r4, r5, r6, lr}
 80010a2:	2690      	movs	r6, #144	@ 0x90
 80010a4:	2180      	movs	r1, #128	@ 0x80
 80010a6:	05f6      	lsls	r6, r6, #23
 80010a8:	0030      	movs	r0, r6
 80010aa:	0049      	lsls	r1, r1, #1
 80010ac:	f001 fbc0 	bl	8002830 <HAL_GPIO_ReadPin>
 80010b0:	2180      	movs	r1, #128	@ 0x80
 80010b2:	0004      	movs	r4, r0
 80010b4:	0089      	lsls	r1, r1, #2
 80010b6:	0030      	movs	r0, r6
 80010b8:	f001 fbba 	bl	8002830 <HAL_GPIO_ReadPin>
 80010bc:	2180      	movs	r1, #128	@ 0x80
 80010be:	0005      	movs	r5, r0
 80010c0:	00c9      	lsls	r1, r1, #3
 80010c2:	0030      	movs	r0, r6
 80010c4:	f001 fbb4 	bl	8002830 <HAL_GPIO_ReadPin>
 80010c8:	426b      	negs	r3, r5
 80010ca:	415d      	adcs	r5, r3
 80010cc:	4243      	negs	r3, r0
 80010ce:	4158      	adcs	r0, r3
 80010d0:	2180      	movs	r1, #128	@ 0x80
 80010d2:	0080      	lsls	r0, r0, #2
 80010d4:	006d      	lsls	r5, r5, #1
 80010d6:	182d      	adds	r5, r5, r0
 80010d8:	0109      	lsls	r1, r1, #4
 80010da:	0030      	movs	r0, r6
 80010dc:	f001 fba8 	bl	8002830 <HAL_GPIO_ReadPin>
 80010e0:	4263      	negs	r3, r4
 80010e2:	415c      	adcs	r4, r3
 80010e4:	4243      	negs	r3, r0
 80010e6:	4158      	adcs	r0, r3
 80010e8:	1964      	adds	r4, r4, r5
 80010ea:	00c0      	lsls	r0, r0, #3
 80010ec:	1820      	adds	r0, r4, r0
 80010ee:	bd70      	pop	{r4, r5, r6, pc}

080010f0 <togRDY>:
 80010f0:	b510      	push	{r4, lr}
 80010f2:	2110      	movs	r1, #16
 80010f4:	4801      	ldr	r0, [pc, #4]	@ (80010fc <togRDY+0xc>)
 80010f6:	f001 fba7 	bl	8002848 <HAL_GPIO_TogglePin>
 80010fa:	bd10      	pop	{r4, pc}
 80010fc:	48000400 	.word	0x48000400

08001100 <togRX>:
 8001100:	b510      	push	{r4, lr}
 8001102:	2120      	movs	r1, #32
 8001104:	4801      	ldr	r0, [pc, #4]	@ (800110c <togRX+0xc>)
 8001106:	f001 fb9f 	bl	8002848 <HAL_GPIO_TogglePin>
 800110a:	bd10      	pop	{r4, pc}
 800110c:	48000400 	.word	0x48000400

08001110 <togTX>:
 8001110:	b510      	push	{r4, lr}
 8001112:	2140      	movs	r1, #64	@ 0x40
 8001114:	4801      	ldr	r0, [pc, #4]	@ (800111c <togTX+0xc>)
 8001116:	f001 fb97 	bl	8002848 <HAL_GPIO_TogglePin>
 800111a:	bd10      	pop	{r4, pc}
 800111c:	48000400 	.word	0x48000400

08001120 <tick5ms>:
 8001120:	b510      	push	{r4, lr}
 8001122:	2401      	movs	r4, #1
 8001124:	4b0c      	ldr	r3, [pc, #48]	@ (8001158 <tick5ms+0x38>)
 8001126:	480d      	ldr	r0, [pc, #52]	@ (800115c <tick5ms+0x3c>)
 8001128:	490d      	ldr	r1, [pc, #52]	@ (8001160 <tick5ms+0x40>)
 800112a:	7802      	ldrb	r2, [r0, #0]
 800112c:	701c      	strb	r4, [r3, #0]
 800112e:	780b      	ldrb	r3, [r1, #0]
 8001130:	1912      	adds	r2, r2, r4
 8001132:	191b      	adds	r3, r3, r4
 8001134:	b2d2      	uxtb	r2, r2
 8001136:	b2db      	uxtb	r3, r3
 8001138:	7002      	strb	r2, [r0, #0]
 800113a:	700b      	strb	r3, [r1, #0]
 800113c:	2a64      	cmp	r2, #100	@ 0x64
 800113e:	d103      	bne.n	8001148 <tick5ms+0x28>
 8001140:	4a08      	ldr	r2, [pc, #32]	@ (8001164 <tick5ms+0x44>)
 8001142:	7014      	strb	r4, [r2, #0]
 8001144:	2200      	movs	r2, #0
 8001146:	7002      	strb	r2, [r0, #0]
 8001148:	2bc8      	cmp	r3, #200	@ 0xc8
 800114a:	d104      	bne.n	8001156 <tick5ms+0x36>
 800114c:	2201      	movs	r2, #1
 800114e:	4b06      	ldr	r3, [pc, #24]	@ (8001168 <tick5ms+0x48>)
 8001150:	701a      	strb	r2, [r3, #0]
 8001152:	2300      	movs	r3, #0
 8001154:	700b      	strb	r3, [r1, #0]
 8001156:	bd10      	pop	{r4, pc}
 8001158:	2000004c 	.word	0x2000004c
 800115c:	20000049 	.word	0x20000049
 8001160:	20000048 	.word	0x20000048
 8001164:	2000004b 	.word	0x2000004b
 8001168:	2000004a 	.word	0x2000004a

0800116c <IsElapsed5ms>:
 800116c:	4b01      	ldr	r3, [pc, #4]	@ (8001174 <IsElapsed5ms+0x8>)
 800116e:	7818      	ldrb	r0, [r3, #0]
 8001170:	4770      	bx	lr
 8001172:	46c0      	nop			@ (mov r8, r8)
 8001174:	2000004c 	.word	0x2000004c

08001178 <IsElapsed500ms>:
 8001178:	4b01      	ldr	r3, [pc, #4]	@ (8001180 <IsElapsed500ms+0x8>)
 800117a:	7818      	ldrb	r0, [r3, #0]
 800117c:	4770      	bx	lr
 800117e:	46c0      	nop			@ (mov r8, r8)
 8001180:	2000004b 	.word	0x2000004b

08001184 <reset5ms>:
 8001184:	2200      	movs	r2, #0
 8001186:	4b01      	ldr	r3, [pc, #4]	@ (800118c <reset5ms+0x8>)
 8001188:	701a      	strb	r2, [r3, #0]
 800118a:	4770      	bx	lr
 800118c:	2000004c 	.word	0x2000004c

08001190 <reset500ms>:
 8001190:	2200      	movs	r2, #0
 8001192:	4b01      	ldr	r3, [pc, #4]	@ (8001198 <reset500ms+0x8>)
 8001194:	701a      	strb	r2, [r3, #0]
 8001196:	4770      	bx	lr
 8001198:	2000004b 	.word	0x2000004b

0800119c <ModbusInit>:
 800119c:	b510      	push	{r4, lr}
 800119e:	0004      	movs	r4, r0
 80011a0:	6062      	str	r2, [r4, #4]
 80011a2:	2299      	movs	r2, #153	@ 0x99
 80011a4:	60a3      	str	r3, [r4, #8]
 80011a6:	0008      	movs	r0, r1
 80011a8:	0019      	movs	r1, r3
 80011aa:	2300      	movs	r3, #0
 80011ac:	0092      	lsls	r2, r2, #2
 80011ae:	6020      	str	r0, [r4, #0]
 80011b0:	52a3      	strh	r3, [r4, r2]
 80011b2:	4a04      	ldr	r2, [pc, #16]	@ (80011c4 <ModbusInit+0x28>)
 80011b4:	54a3      	strb	r3, [r4, r2]
 80011b6:	2201      	movs	r2, #1
 80011b8:	f002 fcbc 	bl	8003b34 <HAL_UART_Receive_IT>
 80011bc:	6860      	ldr	r0, [r4, #4]
 80011be:	f001 fec9 	bl	8002f54 <HAL_TIM_Base_Start_IT>
 80011c2:	bd10      	pop	{r4, pc}
 80011c4:	00000266 	.word	0x00000266

080011c8 <ModbusRcv>:
 80011c8:	2399      	movs	r3, #153	@ 0x99
 80011ca:	2201      	movs	r2, #1
 80011cc:	2100      	movs	r1, #0
 80011ce:	009b      	lsls	r3, r3, #2
 80011d0:	b570      	push	{r4, r5, r6, lr}
 80011d2:	54c2      	strb	r2, [r0, r3]
 80011d4:	6843      	ldr	r3, [r0, #4]
 80011d6:	4c07      	ldr	r4, [pc, #28]	@ (80011f4 <ModbusRcv+0x2c>)
 80011d8:	681b      	ldr	r3, [r3, #0]
 80011da:	6259      	str	r1, [r3, #36]	@ 0x24
 80011dc:	5d03      	ldrb	r3, [r0, r4]
 80011de:	6881      	ldr	r1, [r0, #8]
 80011e0:	189d      	adds	r5, r3, r2
 80011e2:	5505      	strb	r5, [r0, r4]
 80011e4:	780c      	ldrb	r4, [r1, #0]
 80011e6:	18c3      	adds	r3, r0, r3
 80011e8:	731c      	strb	r4, [r3, #12]
 80011ea:	6800      	ldr	r0, [r0, #0]
 80011ec:	f002 fca2 	bl	8003b34 <HAL_UART_Receive_IT>
 80011f0:	bd70      	pop	{r4, r5, r6, pc}
 80011f2:	46c0      	nop			@ (mov r8, r8)
 80011f4:	00000265 	.word	0x00000265

080011f8 <ModbusReset>:
 80011f8:	b570      	push	{r4, r5, r6, lr}
 80011fa:	2500      	movs	r5, #0
 80011fc:	4b05      	ldr	r3, [pc, #20]	@ (8001214 <ModbusReset+0x1c>)
 80011fe:	0004      	movs	r4, r0
 8001200:	54c5      	strb	r5, [r0, r3]
 8001202:	6881      	ldr	r1, [r0, #8]
 8001204:	2201      	movs	r2, #1
 8001206:	6800      	ldr	r0, [r0, #0]
 8001208:	f002 fc94 	bl	8003b34 <HAL_UART_Receive_IT>
 800120c:	2399      	movs	r3, #153	@ 0x99
 800120e:	009b      	lsls	r3, r3, #2
 8001210:	54e5      	strb	r5, [r4, r3]
 8001212:	bd70      	pop	{r4, r5, r6, pc}
 8001214:	00000265 	.word	0x00000265

08001218 <ModbusTimeOut>:
 8001218:	2399      	movs	r3, #153	@ 0x99
 800121a:	009b      	lsls	r3, r3, #2
 800121c:	5cc2      	ldrb	r2, [r0, r3]
 800121e:	2a01      	cmp	r2, #1
 8001220:	d101      	bne.n	8001226 <ModbusTimeOut+0xe>
 8001222:	3201      	adds	r2, #1
 8001224:	54c2      	strb	r2, [r0, r3]
 8001226:	4770      	bx	lr

08001228 <EndianSwap>:
 8001228:	0052      	lsls	r2, r2, #1
 800122a:	188a      	adds	r2, r1, r2
 800122c:	4291      	cmp	r1, r2
 800122e:	d100      	bne.n	8001232 <EndianSwap+0xa>
 8001230:	4770      	bx	lr
 8001232:	784b      	ldrb	r3, [r1, #1]
 8001234:	7003      	strb	r3, [r0, #0]
 8001236:	780b      	ldrb	r3, [r1, #0]
 8001238:	3102      	adds	r1, #2
 800123a:	7043      	strb	r3, [r0, #1]
 800123c:	3002      	adds	r0, #2
 800123e:	e7f5      	b.n	800122c <EndianSwap+0x4>

08001240 <getInfo>:
 8001240:	b570      	push	{r4, r5, r6, lr}
 8001242:	0006      	movs	r6, r0
 8001244:	001d      	movs	r5, r3
 8001246:	9c04      	ldr	r4, [sp, #16]
 8001248:	0010      	movs	r0, r2
 800124a:	7823      	ldrb	r3, [r4, #0]
 800124c:	2201      	movs	r2, #1
 800124e:	7033      	strb	r3, [r6, #0]
 8001250:	7863      	ldrb	r3, [r4, #1]
 8001252:	700b      	strb	r3, [r1, #0]
 8001254:	1ca1      	adds	r1, r4, #2
 8001256:	f7ff ffe7 	bl	8001228 <EndianSwap>
 800125a:	0028      	movs	r0, r5
 800125c:	2201      	movs	r2, #1
 800125e:	1d21      	adds	r1, r4, #4
 8001260:	f7ff ffe2 	bl	8001228 <EndianSwap>
 8001264:	bd70      	pop	{r4, r5, r6, pc}

08001266 <copyData>:
 8001266:	0052      	lsls	r2, r2, #1
 8001268:	188a      	adds	r2, r1, r2
 800126a:	4291      	cmp	r1, r2
 800126c:	d100      	bne.n	8001270 <copyData+0xa>
 800126e:	4770      	bx	lr
 8001270:	780b      	ldrb	r3, [r1, #0]
 8001272:	7003      	strb	r3, [r0, #0]
 8001274:	784b      	ldrb	r3, [r1, #1]
 8001276:	3102      	adds	r1, #2
 8001278:	7043      	strb	r3, [r0, #1]
 800127a:	3002      	adds	r0, #2
 800127c:	e7f5      	b.n	800126a <copyData+0x4>
	...

08001280 <CRC16>:
 8001280:	0002      	movs	r2, r0
 8001282:	4809      	ldr	r0, [pc, #36]	@ (80012a8 <CRC16+0x28>)
 8001284:	b570      	push	{r4, r5, r6, lr}
 8001286:	0004      	movs	r4, r0
 8001288:	4d08      	ldr	r5, [pc, #32]	@ (80012ac <CRC16+0x2c>)
 800128a:	3901      	subs	r1, #1
 800128c:	b289      	uxth	r1, r1
 800128e:	42a1      	cmp	r1, r4
 8001290:	d100      	bne.n	8001294 <CRC16+0x14>
 8001292:	bd70      	pop	{r4, r5, r6, pc}
 8001294:	7813      	ldrb	r3, [r2, #0]
 8001296:	0a06      	lsrs	r6, r0, #8
 8001298:	4043      	eors	r3, r0
 800129a:	b2db      	uxtb	r3, r3
 800129c:	005b      	lsls	r3, r3, #1
 800129e:	5b58      	ldrh	r0, [r3, r5]
 80012a0:	3201      	adds	r2, #1
 80012a2:	4070      	eors	r0, r6
 80012a4:	e7f1      	b.n	800128a <CRC16+0xa>
 80012a6:	46c0      	nop			@ (mov r8, r8)
 80012a8:	0000ffff 	.word	0x0000ffff
 80012ac:	08003cd8 	.word	0x08003cd8

080012b0 <ErrorMSG>:
 80012b0:	b513      	push	{r0, r1, r4, lr}
 80012b2:	001c      	movs	r4, r3
 80012b4:	7018      	strb	r0, [r3, #0]
 80012b6:	2380      	movs	r3, #128	@ 0x80
 80012b8:	425b      	negs	r3, r3
 80012ba:	430b      	orrs	r3, r1
 80012bc:	7063      	strb	r3, [r4, #1]
 80012be:	2103      	movs	r1, #3
 80012c0:	70a2      	strb	r2, [r4, #2]
 80012c2:	0020      	movs	r0, r4
 80012c4:	f7ff ffdc 	bl	8001280 <CRC16>
 80012c8:	466b      	mov	r3, sp
 80012ca:	2201      	movs	r2, #1
 80012cc:	1d99      	adds	r1, r3, #6
 80012ce:	8008      	strh	r0, [r1, #0]
 80012d0:	1ce0      	adds	r0, r4, #3
 80012d2:	f7ff ffc8 	bl	8001266 <copyData>
 80012d6:	bd13      	pop	{r0, r1, r4, pc}

080012d8 <ModbusFunc>:
 80012d8:	b5f0      	push	{r4, r5, r6, r7, lr}
 80012da:	0007      	movs	r7, r0
 80012dc:	4b5f      	ldr	r3, [pc, #380]	@ (800145c <ModbusFunc+0x184>)
 80012de:	370c      	adds	r7, #12
 80012e0:	0004      	movs	r4, r0
 80012e2:	5cc1      	ldrb	r1, [r0, r3]
 80012e4:	b08b      	sub	sp, #44	@ 0x2c
 80012e6:	0038      	movs	r0, r7
 80012e8:	f7ff ffca 	bl	8001280 <CRC16>
 80012ec:	2800      	cmp	r0, #0
 80012ee:	d12a      	bne.n	8001346 <ModbusFunc+0x6e>
 80012f0:	260f      	movs	r6, #15
 80012f2:	250e      	movs	r5, #14
 80012f4:	ab04      	add	r3, sp, #16
 80012f6:	18ed      	adds	r5, r5, r3
 80012f8:	18f6      	adds	r6, r6, r3
 80012fa:	0028      	movs	r0, r5
 80012fc:	0031      	movs	r1, r6
 80012fe:	9700      	str	r7, [sp, #0]
 8001300:	ab09      	add	r3, sp, #36	@ 0x24
 8001302:	aa08      	add	r2, sp, #32
 8001304:	f7ff ff9c 	bl	8001240 <getInfo>
 8001308:	ab04      	add	r3, sp, #16
 800130a:	8a1b      	ldrh	r3, [r3, #16]
 800130c:	aa04      	add	r2, sp, #16
 800130e:	8253      	strh	r3, [r2, #18]
 8001310:	005b      	lsls	r3, r3, #1
 8001312:	b29f      	uxth	r7, r3
 8001314:	8217      	strh	r7, [r2, #16]
 8001316:	f7ff fec3 	bl	80010a0 <getID>
 800131a:	782d      	ldrb	r5, [r5, #0]
 800131c:	42a8      	cmp	r0, r5
 800131e:	d001      	beq.n	8001324 <ModbusFunc+0x4c>
 8001320:	2d00      	cmp	r5, #0
 8001322:	d110      	bne.n	8001346 <ModbusFunc+0x6e>
 8001324:	f7ff feec 	bl	8001100 <togRX>
 8001328:	7836      	ldrb	r6, [r6, #0]
 800132a:	2e03      	cmp	r6, #3
 800132c:	d007      	beq.n	800133e <ModbusFunc+0x66>
 800132e:	2e10      	cmp	r6, #16
 8001330:	d04b      	beq.n	80013ca <ModbusFunc+0xf2>
 8001332:	0027      	movs	r7, r4
 8001334:	3739      	adds	r7, #57	@ 0x39
 8001336:	37ff      	adds	r7, #255	@ 0xff
 8001338:	003b      	movs	r3, r7
 800133a:	2201      	movs	r2, #1
 800133c:	e04c      	b.n	80013d8 <ModbusFunc+0x100>
 800133e:	2d00      	cmp	r5, #0
 8001340:	d103      	bne.n	800134a <ModbusFunc+0x72>
 8001342:	f7ff fee5 	bl	8001110 <togTX>
 8001346:	b00b      	add	sp, #44	@ 0x2c
 8001348:	bdf0      	pop	{r4, r5, r6, r7, pc}
 800134a:	0023      	movs	r3, r4
 800134c:	3339      	adds	r3, #57	@ 0x39
 800134e:	33ff      	adds	r3, #255	@ 0xff
 8001350:	9304      	str	r3, [sp, #16]
 8001352:	2f1a      	cmp	r7, #26
 8001354:	d90a      	bls.n	800136c <ModbusFunc+0x94>
 8001356:	2202      	movs	r2, #2
 8001358:	0031      	movs	r1, r6
 800135a:	0028      	movs	r0, r5
 800135c:	f7ff ffa8 	bl	80012b0 <ErrorMSG>
 8001360:	2205      	movs	r2, #5
 8001362:	9904      	ldr	r1, [sp, #16]
 8001364:	6820      	ldr	r0, [r4, #0]
 8001366:	f002 f80b 	bl	8003380 <HAL_UART_Transmit_DMA>
 800136a:	e7ec      	b.n	8001346 <ModbusFunc+0x6e>
 800136c:	ab04      	add	r3, sp, #16
 800136e:	8a9b      	ldrh	r3, [r3, #20]
 8001370:	9305      	str	r3, [sp, #20]
 8001372:	005b      	lsls	r3, r3, #1
 8001374:	b2db      	uxtb	r3, r3
 8001376:	9303      	str	r3, [sp, #12]
 8001378:	239c      	movs	r3, #156	@ 0x9c
 800137a:	005b      	lsls	r3, r3, #1
 800137c:	54e5      	strb	r5, [r4, r3]
 800137e:	233a      	movs	r3, #58	@ 0x3a
 8001380:	9a03      	ldr	r2, [sp, #12]
 8001382:	33ff      	adds	r3, #255	@ 0xff
 8001384:	54e6      	strb	r6, [r4, r3]
 8001386:	3301      	adds	r3, #1
 8001388:	54e2      	strb	r2, [r4, r3]
 800138a:	f7ff fe29 	bl	8000fe0 <getFlashReg>
 800138e:	19c1      	adds	r1, r0, r7
 8001390:	0020      	movs	r0, r4
 8001392:	303c      	adds	r0, #60	@ 0x3c
 8001394:	9a05      	ldr	r2, [sp, #20]
 8001396:	30ff      	adds	r0, #255	@ 0xff
 8001398:	f7ff ff46 	bl	8001228 <EndianSwap>
 800139c:	9b03      	ldr	r3, [sp, #12]
 800139e:	9804      	ldr	r0, [sp, #16]
 80013a0:	1cd9      	adds	r1, r3, #3
 80013a2:	f7ff ff6d 	bl	8001280 <CRC16>
 80013a6:	2116      	movs	r1, #22
 80013a8:	ab04      	add	r3, sp, #16
 80013aa:	18c9      	adds	r1, r1, r3
 80013ac:	8008      	strh	r0, [r1, #0]
 80013ae:	9803      	ldr	r0, [sp, #12]
 80013b0:	2201      	movs	r2, #1
 80013b2:	303c      	adds	r0, #60	@ 0x3c
 80013b4:	30ff      	adds	r0, #255	@ 0xff
 80013b6:	1820      	adds	r0, r4, r0
 80013b8:	f7ff ff55 	bl	8001266 <copyData>
 80013bc:	9b03      	ldr	r3, [sp, #12]
 80013be:	9904      	ldr	r1, [sp, #16]
 80013c0:	1d5a      	adds	r2, r3, #5
 80013c2:	6820      	ldr	r0, [r4, #0]
 80013c4:	f001 ffdc 	bl	8003380 <HAL_UART_Transmit_DMA>
 80013c8:	e7bb      	b.n	8001342 <ModbusFunc+0x6a>
 80013ca:	2f1a      	cmp	r7, #26
 80013cc:	d90b      	bls.n	80013e6 <ModbusFunc+0x10e>
 80013ce:	0027      	movs	r7, r4
 80013d0:	3739      	adds	r7, #57	@ 0x39
 80013d2:	37ff      	adds	r7, #255	@ 0xff
 80013d4:	003b      	movs	r3, r7
 80013d6:	2202      	movs	r2, #2
 80013d8:	0031      	movs	r1, r6
 80013da:	0028      	movs	r0, r5
 80013dc:	f7ff ff68 	bl	80012b0 <ErrorMSG>
 80013e0:	2205      	movs	r2, #5
 80013e2:	0039      	movs	r1, r7
 80013e4:	e7be      	b.n	8001364 <ModbusFunc+0x8c>
 80013e6:	f7ff fdfb 	bl	8000fe0 <getFlashReg>
 80013ea:	0021      	movs	r1, r4
 80013ec:	19c0      	adds	r0, r0, r7
 80013ee:	2701      	movs	r7, #1
 80013f0:	ab04      	add	r3, sp, #16
 80013f2:	8a9a      	ldrh	r2, [r3, #20]
 80013f4:	3113      	adds	r1, #19
 80013f6:	f7ff ff17 	bl	8001228 <EndianSwap>
 80013fa:	4b19      	ldr	r3, [pc, #100]	@ (8001460 <ModbusFunc+0x188>)
 80013fc:	54e7      	strb	r7, [r4, r3]
 80013fe:	2d00      	cmp	r5, #0
 8001400:	d0a1      	beq.n	8001346 <ModbusFunc+0x6e>
 8001402:	3b2f      	subs	r3, #47	@ 0x2f
 8001404:	3bff      	subs	r3, #255	@ 0xff
 8001406:	54e5      	strb	r5, [r4, r3]
 8001408:	233a      	movs	r3, #58	@ 0x3a
 800140a:	0020      	movs	r0, r4
 800140c:	33ff      	adds	r3, #255	@ 0xff
 800140e:	54e6      	strb	r6, [r4, r3]
 8001410:	3b28      	subs	r3, #40	@ 0x28
 8001412:	a904      	add	r1, sp, #16
 8001414:	3bff      	subs	r3, #255	@ 0xff
 8001416:	185b      	adds	r3, r3, r1
 8001418:	303b      	adds	r0, #59	@ 0x3b
 800141a:	0019      	movs	r1, r3
 800141c:	003a      	movs	r2, r7
 800141e:	30ff      	adds	r0, #255	@ 0xff
 8001420:	f7ff ff02 	bl	8001228 <EndianSwap>
 8001424:	0025      	movs	r5, r4
 8001426:	0020      	movs	r0, r4
 8001428:	3539      	adds	r5, #57	@ 0x39
 800142a:	303d      	adds	r0, #61	@ 0x3d
 800142c:	003a      	movs	r2, r7
 800142e:	30ff      	adds	r0, #255	@ 0xff
 8001430:	a909      	add	r1, sp, #36	@ 0x24
 8001432:	35ff      	adds	r5, #255	@ 0xff
 8001434:	f7ff fef8 	bl	8001228 <EndianSwap>
 8001438:	2106      	movs	r1, #6
 800143a:	0028      	movs	r0, r5
 800143c:	f7ff ff20 	bl	8001280 <CRC16>
 8001440:	2116      	movs	r1, #22
 8001442:	ab04      	add	r3, sp, #16
 8001444:	18c9      	adds	r1, r1, r3
 8001446:	8008      	strh	r0, [r1, #0]
 8001448:	0020      	movs	r0, r4
 800144a:	303f      	adds	r0, #63	@ 0x3f
 800144c:	003a      	movs	r2, r7
 800144e:	30ff      	adds	r0, #255	@ 0xff
 8001450:	f7ff ff09 	bl	8001266 <copyData>
 8001454:	2208      	movs	r2, #8
 8001456:	0029      	movs	r1, r5
 8001458:	e7b3      	b.n	80013c2 <ModbusFunc+0xea>
 800145a:	46c0      	nop			@ (mov r8, r8)
 800145c:	00000265 	.word	0x00000265
 8001460:	00000266 	.word	0x00000266

08001464 <HAL_UART_RxCpltCallback>:
 8001464:	4b04      	ldr	r3, [pc, #16]	@ (8001478 <HAL_UART_RxCpltCallback+0x14>)
 8001466:	6802      	ldr	r2, [r0, #0]
 8001468:	681b      	ldr	r3, [r3, #0]
 800146a:	b510      	push	{r4, lr}
 800146c:	429a      	cmp	r2, r3
 800146e:	d102      	bne.n	8001476 <HAL_UART_RxCpltCallback+0x12>
 8001470:	4802      	ldr	r0, [pc, #8]	@ (800147c <HAL_UART_RxCpltCallback+0x18>)
 8001472:	f7ff fea9 	bl	80011c8 <ModbusRcv>
 8001476:	bd10      	pop	{r4, pc}
 8001478:	20000310 	.word	0x20000310
 800147c:	20000050 	.word	0x20000050

08001480 <HAL_TIM_PeriodElapsedCallback>:
 8001480:	4b07      	ldr	r3, [pc, #28]	@ (80014a0 <HAL_TIM_PeriodElapsedCallback+0x20>)
 8001482:	6802      	ldr	r2, [r0, #0]
 8001484:	b510      	push	{r4, lr}
 8001486:	0004      	movs	r4, r0
 8001488:	429a      	cmp	r2, r3
 800148a:	d101      	bne.n	8001490 <HAL_TIM_PeriodElapsedCallback+0x10>
 800148c:	f7ff fe48 	bl	8001120 <tick5ms>
 8001490:	4b04      	ldr	r3, [pc, #16]	@ (80014a4 <HAL_TIM_PeriodElapsedCallback+0x24>)
 8001492:	6822      	ldr	r2, [r4, #0]
 8001494:	429a      	cmp	r2, r3
 8001496:	d102      	bne.n	800149e <HAL_TIM_PeriodElapsedCallback+0x1e>
 8001498:	4803      	ldr	r0, [pc, #12]	@ (80014a8 <HAL_TIM_PeriodElapsedCallback+0x28>)
 800149a:	f7ff febd 	bl	8001218 <ModbusTimeOut>
 800149e:	bd10      	pop	{r4, pc}
 80014a0:	40000400 	.word	0x40000400
 80014a4:	40002000 	.word	0x40002000
 80014a8:	20000050 	.word	0x20000050

080014ac <HAL_ADC_ConvCpltCallback>:
 80014ac:	4b06      	ldr	r3, [pc, #24]	@ (80014c8 <HAL_ADC_ConvCpltCallback+0x1c>)
 80014ae:	6801      	ldr	r1, [r0, #0]
 80014b0:	681a      	ldr	r2, [r3, #0]
 80014b2:	b510      	push	{r4, lr}
 80014b4:	4291      	cmp	r1, r2
 80014b6:	d105      	bne.n	80014c4 <HAL_ADC_ConvCpltCallback+0x18>
 80014b8:	0018      	movs	r0, r3
 80014ba:	f000 fce5 	bl	8001e88 <HAL_ADC_Stop_DMA>
 80014be:	2201      	movs	r2, #1
 80014c0:	4b02      	ldr	r3, [pc, #8]	@ (80014cc <HAL_ADC_ConvCpltCallback+0x20>)
 80014c2:	701a      	strb	r2, [r3, #0]
 80014c4:	bd10      	pop	{r4, pc}
 80014c6:	46c0      	nop			@ (mov r8, r8)
 80014c8:	20000478 	.word	0x20000478
 80014cc:	200002c8 	.word	0x200002c8

080014d0 <SystemClock_Config>:
 80014d0:	b530      	push	{r4, r5, lr}
 80014d2:	b095      	sub	sp, #84	@ 0x54
 80014d4:	2228      	movs	r2, #40	@ 0x28
 80014d6:	2100      	movs	r1, #0
 80014d8:	a80a      	add	r0, sp, #40	@ 0x28
 80014da:	f002 fb9b 	bl	8003c14 <memset>
 80014de:	2210      	movs	r2, #16
 80014e0:	2100      	movs	r1, #0
 80014e2:	4668      	mov	r0, sp
 80014e4:	f002 fb96 	bl	8003c14 <memset>
 80014e8:	2210      	movs	r2, #16
 80014ea:	2100      	movs	r1, #0
 80014ec:	a804      	add	r0, sp, #16
 80014ee:	f002 fb91 	bl	8003c14 <memset>
 80014f2:	2309      	movs	r3, #9
 80014f4:	9308      	str	r3, [sp, #32]
 80014f6:	2380      	movs	r3, #128	@ 0x80
 80014f8:	025b      	lsls	r3, r3, #9
 80014fa:	9311      	str	r3, [sp, #68]	@ 0x44
 80014fc:	2380      	movs	r3, #128	@ 0x80
 80014fe:	2401      	movs	r4, #1
 8001500:	2502      	movs	r5, #2
 8001502:	035b      	lsls	r3, r3, #13
 8001504:	a808      	add	r0, sp, #32
 8001506:	9409      	str	r4, [sp, #36]	@ 0x24
 8001508:	940f      	str	r4, [sp, #60]	@ 0x3c
 800150a:	9510      	str	r5, [sp, #64]	@ 0x40
 800150c:	9312      	str	r3, [sp, #72]	@ 0x48
 800150e:	f001 f9d7 	bl	80028c0 <HAL_RCC_OscConfig>
 8001512:	2800      	cmp	r0, #0
 8001514:	d001      	beq.n	800151a <SystemClock_Config+0x4a>
 8001516:	b672      	cpsid	i
 8001518:	e7fe      	b.n	8001518 <SystemClock_Config+0x48>
 800151a:	2307      	movs	r3, #7
 800151c:	9002      	str	r0, [sp, #8]
 800151e:	9003      	str	r0, [sp, #12]
 8001520:	0021      	movs	r1, r4
 8001522:	4668      	mov	r0, sp
 8001524:	9300      	str	r3, [sp, #0]
 8001526:	9501      	str	r5, [sp, #4]
 8001528:	f001 fbfa 	bl	8002d20 <HAL_RCC_ClockConfig>
 800152c:	2800      	cmp	r0, #0
 800152e:	d001      	beq.n	8001534 <SystemClock_Config+0x64>
 8001530:	b672      	cpsid	i
 8001532:	e7fe      	b.n	8001532 <SystemClock_Config+0x62>
 8001534:	9006      	str	r0, [sp, #24]
 8001536:	a804      	add	r0, sp, #16
 8001538:	9404      	str	r4, [sp, #16]
 800153a:	f001 fc85 	bl	8002e48 <HAL_RCCEx_PeriphCLKConfig>
 800153e:	2800      	cmp	r0, #0
 8001540:	d001      	beq.n	8001546 <SystemClock_Config+0x76>
 8001542:	b672      	cpsid	i
 8001544:	e7fe      	b.n	8001544 <SystemClock_Config+0x74>
 8001546:	b015      	add	sp, #84	@ 0x54
 8001548:	bd30      	pop	{r4, r5, pc}
	...

0800154c <main>:
 800154c:	b5f0      	push	{r4, r5, r6, r7, lr}
 800154e:	b08f      	sub	sp, #60	@ 0x3c
 8001550:	f000 fade 	bl	8001b10 <HAL_Init>
 8001554:	f7ff ffbc 	bl	80014d0 <SystemClock_Config>
 8001558:	2214      	movs	r2, #20
 800155a:	2100      	movs	r1, #0
 800155c:	a809      	add	r0, sp, #36	@ 0x24
 800155e:	f002 fb59 	bl	8003c14 <memset>
 8001562:	2280      	movs	r2, #128	@ 0x80
 8001564:	4ca1      	ldr	r4, [pc, #644]	@ (80017ec <main+0x2a0>)
 8001566:	03d2      	lsls	r2, r2, #15
 8001568:	6963      	ldr	r3, [r4, #20]
 800156a:	21f0      	movs	r1, #240	@ 0xf0
 800156c:	4313      	orrs	r3, r2
 800156e:	6163      	str	r3, [r4, #20]
 8001570:	6963      	ldr	r3, [r4, #20]
 8001572:	489f      	ldr	r0, [pc, #636]	@ (80017f0 <main+0x2a4>)
 8001574:	4013      	ands	r3, r2
 8001576:	2280      	movs	r2, #128	@ 0x80
 8001578:	9304      	str	r3, [sp, #16]
 800157a:	9b04      	ldr	r3, [sp, #16]
 800157c:	6963      	ldr	r3, [r4, #20]
 800157e:	0292      	lsls	r2, r2, #10
 8001580:	4313      	orrs	r3, r2
 8001582:	6163      	str	r3, [r4, #20]
 8001584:	6963      	ldr	r3, [r4, #20]
 8001586:	2600      	movs	r6, #0
 8001588:	4013      	ands	r3, r2
 800158a:	2280      	movs	r2, #128	@ 0x80
 800158c:	9305      	str	r3, [sp, #20]
 800158e:	9b05      	ldr	r3, [sp, #20]
 8001590:	6963      	ldr	r3, [r4, #20]
 8001592:	02d2      	lsls	r2, r2, #11
 8001594:	4313      	orrs	r3, r2
 8001596:	6163      	str	r3, [r4, #20]
 8001598:	6963      	ldr	r3, [r4, #20]
 800159a:	2701      	movs	r7, #1
 800159c:	4013      	ands	r3, r2
 800159e:	9306      	str	r3, [sp, #24]
 80015a0:	2200      	movs	r2, #0
 80015a2:	9b06      	ldr	r3, [sp, #24]
 80015a4:	f001 f94a 	bl	800283c <HAL_GPIO_WritePin>
 80015a8:	23f0      	movs	r3, #240	@ 0xf0
 80015aa:	2090      	movs	r0, #144	@ 0x90
 80015ac:	011b      	lsls	r3, r3, #4
 80015ae:	a909      	add	r1, sp, #36	@ 0x24
 80015b0:	05c0      	lsls	r0, r0, #23
 80015b2:	9309      	str	r3, [sp, #36]	@ 0x24
 80015b4:	960a      	str	r6, [sp, #40]	@ 0x28
 80015b6:	970b      	str	r7, [sp, #44]	@ 0x2c
 80015b8:	f001 f886 	bl	80026c8 <HAL_GPIO_Init>
 80015bc:	23f0      	movs	r3, #240	@ 0xf0
 80015be:	488c      	ldr	r0, [pc, #560]	@ (80017f0 <main+0x2a4>)
 80015c0:	a909      	add	r1, sp, #36	@ 0x24
 80015c2:	9309      	str	r3, [sp, #36]	@ 0x24
 80015c4:	960b      	str	r6, [sp, #44]	@ 0x2c
 80015c6:	960c      	str	r6, [sp, #48]	@ 0x30
 80015c8:	970a      	str	r7, [sp, #40]	@ 0x28
 80015ca:	f001 f87d 	bl	80026c8 <HAL_GPIO_Init>
 80015ce:	6963      	ldr	r3, [r4, #20]
 80015d0:	0032      	movs	r2, r6
 80015d2:	433b      	orrs	r3, r7
 80015d4:	6163      	str	r3, [r4, #20]
 80015d6:	6963      	ldr	r3, [r4, #20]
 80015d8:	0031      	movs	r1, r6
 80015da:	403b      	ands	r3, r7
 80015dc:	2009      	movs	r0, #9
 80015de:	9303      	str	r3, [sp, #12]
 80015e0:	9b03      	ldr	r3, [sp, #12]
 80015e2:	f000 fe11 	bl	8002208 <HAL_NVIC_SetPriority>
 80015e6:	2009      	movs	r0, #9
 80015e8:	f000 fe38 	bl	800225c <HAL_NVIC_EnableIRQ>
 80015ec:	0032      	movs	r2, r6
 80015ee:	0031      	movs	r1, r6
 80015f0:	200a      	movs	r0, #10
 80015f2:	f000 fe09 	bl	8002208 <HAL_NVIC_SetPriority>
 80015f6:	200a      	movs	r0, #10
 80015f8:	f000 fe30 	bl	800225c <HAL_NVIC_EnableIRQ>
 80015fc:	4d7d      	ldr	r5, [pc, #500]	@ (80017f4 <main+0x2a8>)
 80015fe:	4b7e      	ldr	r3, [pc, #504]	@ (80017f8 <main+0x2ac>)
 8001600:	240c      	movs	r4, #12
 8001602:	602b      	str	r3, [r5, #0]
 8001604:	2396      	movs	r3, #150	@ 0x96
 8001606:	019b      	lsls	r3, r3, #6
 8001608:	0032      	movs	r2, r6
 800160a:	0031      	movs	r1, r6
 800160c:	606b      	str	r3, [r5, #4]
 800160e:	0028      	movs	r0, r5
 8001610:	0033      	movs	r3, r6
 8001612:	60ae      	str	r6, [r5, #8]
 8001614:	60ee      	str	r6, [r5, #12]
 8001616:	612e      	str	r6, [r5, #16]
 8001618:	61ae      	str	r6, [r5, #24]
 800161a:	61ee      	str	r6, [r5, #28]
 800161c:	622e      	str	r6, [r5, #32]
 800161e:	626e      	str	r6, [r5, #36]	@ 0x24
 8001620:	616c      	str	r4, [r5, #20]
 8001622:	f002 fab5 	bl	8003b90 <HAL_RS485Ex_Init>
 8001626:	1e06      	subs	r6, r0, #0
 8001628:	d001      	beq.n	800162e <main+0xe2>
 800162a:	b672      	cpsid	i
 800162c:	e7fe      	b.n	800162c <main+0xe0>
 800162e:	0022      	movs	r2, r4
 8001630:	0001      	movs	r1, r0
 8001632:	a809      	add	r0, sp, #36	@ 0x24
 8001634:	f002 faee 	bl	8003c14 <memset>
 8001638:	4c70      	ldr	r4, [pc, #448]	@ (80017fc <main+0x2b0>)
 800163a:	4b71      	ldr	r3, [pc, #452]	@ (8001800 <main+0x2b4>)
 800163c:	0020      	movs	r0, r4
 800163e:	6023      	str	r3, [r4, #0]
 8001640:	2380      	movs	r3, #128	@ 0x80
 8001642:	061b      	lsls	r3, r3, #24
 8001644:	6063      	str	r3, [r4, #4]
 8001646:	2304      	movs	r3, #4
 8001648:	6163      	str	r3, [r4, #20]
 800164a:	23c2      	movs	r3, #194	@ 0xc2
 800164c:	33ff      	adds	r3, #255	@ 0xff
 800164e:	61e3      	str	r3, [r4, #28]
 8001650:	1d63      	adds	r3, r4, #5
 8001652:	60a6      	str	r6, [r4, #8]
 8001654:	60e6      	str	r6, [r4, #12]
 8001656:	6127      	str	r7, [r4, #16]
 8001658:	61a6      	str	r6, [r4, #24]
 800165a:	6226      	str	r6, [r4, #32]
 800165c:	77de      	strb	r6, [r3, #31]
 800165e:	62a7      	str	r7, [r4, #40]	@ 0x28
 8001660:	f000 fb26 	bl	8001cb0 <HAL_ADC_Init>
 8001664:	2800      	cmp	r0, #0
 8001666:	d001      	beq.n	800166c <main+0x120>
 8001668:	b672      	cpsid	i
 800166a:	e7fe      	b.n	800166a <main+0x11e>
 800166c:	2380      	movs	r3, #128	@ 0x80
 800166e:	015b      	lsls	r3, r3, #5
 8001670:	930a      	str	r3, [sp, #40]	@ 0x28
 8001672:	2303      	movs	r3, #3
 8001674:	9009      	str	r0, [sp, #36]	@ 0x24
 8001676:	a909      	add	r1, sp, #36	@ 0x24
 8001678:	0020      	movs	r0, r4
 800167a:	930b      	str	r3, [sp, #44]	@ 0x2c
 800167c:	f000 fd00 	bl	8002080 <HAL_ADC_ConfigChannel>
 8001680:	2800      	cmp	r0, #0
 8001682:	d001      	beq.n	8001688 <main+0x13c>
 8001684:	b672      	cpsid	i
 8001686:	e7fe      	b.n	8001686 <main+0x13a>
 8001688:	2610      	movs	r6, #16
 800168a:	0020      	movs	r0, r4
 800168c:	a909      	add	r1, sp, #36	@ 0x24
 800168e:	9609      	str	r6, [sp, #36]	@ 0x24
 8001690:	f000 fcf6 	bl	8002080 <HAL_ADC_ConfigChannel>
 8001694:	2800      	cmp	r0, #0
 8001696:	d001      	beq.n	800169c <main+0x150>
 8001698:	b672      	cpsid	i
 800169a:	e7fe      	b.n	800169a <main+0x14e>
 800169c:	2311      	movs	r3, #17
 800169e:	0020      	movs	r0, r4
 80016a0:	a909      	add	r1, sp, #36	@ 0x24
 80016a2:	9309      	str	r3, [sp, #36]	@ 0x24
 80016a4:	f000 fcec 	bl	8002080 <HAL_ADC_ConfigChannel>
 80016a8:	1e07      	subs	r7, r0, #0
 80016aa:	d001      	beq.n	80016b0 <main+0x164>
 80016ac:	b672      	cpsid	i
 80016ae:	e7fe      	b.n	80016ae <main+0x162>
 80016b0:	0032      	movs	r2, r6
 80016b2:	0001      	movs	r1, r0
 80016b4:	a809      	add	r0, sp, #36	@ 0x24
 80016b6:	f002 faad 	bl	8003c14 <memset>
 80016ba:	2208      	movs	r2, #8
 80016bc:	0039      	movs	r1, r7
 80016be:	a807      	add	r0, sp, #28
 80016c0:	f002 faa8 	bl	8003c14 <memset>
 80016c4:	4e4f      	ldr	r6, [pc, #316]	@ (8001804 <main+0x2b8>)
 80016c6:	4b50      	ldr	r3, [pc, #320]	@ (8001808 <main+0x2bc>)
 80016c8:	0030      	movs	r0, r6
 80016ca:	6033      	str	r3, [r6, #0]
 80016cc:	23fe      	movs	r3, #254	@ 0xfe
 80016ce:	005b      	lsls	r3, r3, #1
 80016d0:	6073      	str	r3, [r6, #4]
 80016d2:	33b1      	adds	r3, #177	@ 0xb1
 80016d4:	33ff      	adds	r3, #255	@ 0xff
 80016d6:	60f3      	str	r3, [r6, #12]
 80016d8:	2380      	movs	r3, #128	@ 0x80
 80016da:	60b7      	str	r7, [r6, #8]
 80016dc:	6137      	str	r7, [r6, #16]
 80016de:	61b3      	str	r3, [r6, #24]
 80016e0:	f001 fd46 	bl	8003170 <HAL_TIM_Base_Init>
 80016e4:	2800      	cmp	r0, #0
 80016e6:	d001      	beq.n	80016ec <main+0x1a0>
 80016e8:	b672      	cpsid	i
 80016ea:	e7fe      	b.n	80016ea <main+0x19e>
 80016ec:	2380      	movs	r3, #128	@ 0x80
 80016ee:	0030      	movs	r0, r6
 80016f0:	015b      	lsls	r3, r3, #5
 80016f2:	a909      	add	r1, sp, #36	@ 0x24
 80016f4:	9309      	str	r3, [sp, #36]	@ 0x24
 80016f6:	f001 fd6f 	bl	80031d8 <HAL_TIM_ConfigClockSource>
 80016fa:	2800      	cmp	r0, #0
 80016fc:	d001      	beq.n	8001702 <main+0x1b6>
 80016fe:	b672      	cpsid	i
 8001700:	e7fe      	b.n	8001700 <main+0x1b4>
 8001702:	9007      	str	r0, [sp, #28]
 8001704:	9008      	str	r0, [sp, #32]
 8001706:	a907      	add	r1, sp, #28
 8001708:	0030      	movs	r0, r6
 800170a:	f001 fdf5 	bl	80032f8 <HAL_TIMEx_MasterConfigSynchronization>
 800170e:	2800      	cmp	r0, #0
 8001710:	d001      	beq.n	8001716 <main+0x1ca>
 8001712:	b672      	cpsid	i
 8001714:	e7fe      	b.n	8001714 <main+0x1c8>
 8001716:	4b3d      	ldr	r3, [pc, #244]	@ (800180c <main+0x2c0>)
 8001718:	9300      	str	r3, [sp, #0]
 800171a:	9a00      	ldr	r2, [sp, #0]
 800171c:	4b3c      	ldr	r3, [pc, #240]	@ (8001810 <main+0x2c4>)
 800171e:	6050      	str	r0, [r2, #4]
 8001720:	6013      	str	r3, [r2, #0]
 8001722:	4b3c      	ldr	r3, [pc, #240]	@ (8001814 <main+0x2c8>)
 8001724:	0010      	movs	r0, r2
 8001726:	60d3      	str	r3, [r2, #12]
 8001728:	6093      	str	r3, [r2, #8]
 800172a:	f001 f895 	bl	8002858 <HAL_IWDG_Init>
 800172e:	2800      	cmp	r0, #0
 8001730:	d001      	beq.n	8001736 <main+0x1ea>
 8001732:	b672      	cpsid	i
 8001734:	e7fe      	b.n	8001734 <main+0x1e8>
 8001736:	4f38      	ldr	r7, [pc, #224]	@ (8001818 <main+0x2cc>)
 8001738:	4b38      	ldr	r3, [pc, #224]	@ (800181c <main+0x2d0>)
 800173a:	60b8      	str	r0, [r7, #8]
 800173c:	603b      	str	r3, [r7, #0]
 800173e:	23af      	movs	r3, #175	@ 0xaf
 8001740:	009b      	lsls	r3, r3, #2
 8001742:	607b      	str	r3, [r7, #4]
 8001744:	3bc2      	subs	r3, #194	@ 0xc2
 8001746:	3bff      	subs	r3, #255	@ 0xff
 8001748:	6138      	str	r0, [r7, #16]
 800174a:	61b8      	str	r0, [r7, #24]
 800174c:	0038      	movs	r0, r7
 800174e:	60fb      	str	r3, [r7, #12]
 8001750:	f001 fd0e 	bl	8003170 <HAL_TIM_Base_Init>
 8001754:	2800      	cmp	r0, #0
 8001756:	d001      	beq.n	800175c <main+0x210>
 8001758:	b672      	cpsid	i
 800175a:	e7fe      	b.n	800175a <main+0x20e>
 800175c:	f7ff fc6e 	bl	800103c <initFlash>
 8001760:	4a2f      	ldr	r2, [pc, #188]	@ (8001820 <main+0x2d4>)
 8001762:	0029      	movs	r1, r5
 8001764:	9201      	str	r2, [sp, #4]
 8001766:	4b2f      	ldr	r3, [pc, #188]	@ (8001824 <main+0x2d8>)
 8001768:	003a      	movs	r2, r7
 800176a:	9801      	ldr	r0, [sp, #4]
 800176c:	f7ff fd16 	bl	800119c <ModbusInit>
 8001770:	0020      	movs	r0, r4
 8001772:	f000 fcf5 	bl	8002160 <HAL_ADCEx_Calibration_Start>
 8001776:	2799      	movs	r7, #153	@ 0x99
 8001778:	0030      	movs	r0, r6
 800177a:	f001 fbeb 	bl	8002f54 <HAL_TIM_Base_Start_IT>
 800177e:	2600      	movs	r6, #0
 8001780:	00bf      	lsls	r7, r7, #2
 8001782:	9800      	ldr	r0, [sp, #0]
 8001784:	f001 f894 	bl	80028b0 <HAL_IWDG_Refresh>
 8001788:	4d27      	ldr	r5, [pc, #156]	@ (8001828 <main+0x2dc>)
 800178a:	782b      	ldrb	r3, [r5, #0]
 800178c:	2b01      	cmp	r3, #1
 800178e:	d103      	bne.n	8001798 <main+0x24c>
 8001790:	4826      	ldr	r0, [pc, #152]	@ (800182c <main+0x2e0>)
 8001792:	f7ff fc03 	bl	8000f9c <AdcProcess>
 8001796:	702e      	strb	r6, [r5, #0]
 8001798:	f7ff fce8 	bl	800116c <IsElapsed5ms>
 800179c:	2801      	cmp	r0, #1
 800179e:	d109      	bne.n	80017b4 <main+0x268>
 80017a0:	782b      	ldrb	r3, [r5, #0]
 80017a2:	2b00      	cmp	r3, #0
 80017a4:	d104      	bne.n	80017b0 <main+0x264>
 80017a6:	2204      	movs	r2, #4
 80017a8:	0020      	movs	r0, r4
 80017aa:	4920      	ldr	r1, [pc, #128]	@ (800182c <main+0x2e0>)
 80017ac:	f000 fb22 	bl	8001df4 <HAL_ADC_Start_DMA>
 80017b0:	f7ff fce8 	bl	8001184 <reset5ms>
 80017b4:	f7ff fce0 	bl	8001178 <IsElapsed500ms>
 80017b8:	2801      	cmp	r0, #1
 80017ba:	d103      	bne.n	80017c4 <main+0x278>
 80017bc:	f7ff fc98 	bl	80010f0 <togRDY>
 80017c0:	f7ff fce6 	bl	8001190 <reset500ms>
 80017c4:	9b01      	ldr	r3, [sp, #4]
 80017c6:	5ddb      	ldrb	r3, [r3, r7]
 80017c8:	2b02      	cmp	r3, #2
 80017ca:	d105      	bne.n	80017d8 <main+0x28c>
 80017cc:	9801      	ldr	r0, [sp, #4]
 80017ce:	f7ff fd83 	bl	80012d8 <ModbusFunc>
 80017d2:	9801      	ldr	r0, [sp, #4]
 80017d4:	f7ff fd10 	bl	80011f8 <ModbusReset>
 80017d8:	4d15      	ldr	r5, [pc, #84]	@ (8001830 <main+0x2e4>)
 80017da:	9b01      	ldr	r3, [sp, #4]
 80017dc:	5d5b      	ldrb	r3, [r3, r5]
 80017de:	2b01      	cmp	r3, #1
 80017e0:	d1cf      	bne.n	8001782 <main+0x236>
 80017e2:	f7ff fc51 	bl	8001088 <writeFlash>
 80017e6:	9b01      	ldr	r3, [sp, #4]
 80017e8:	555e      	strb	r6, [r3, r5]
 80017ea:	e7ca      	b.n	8001782 <main+0x236>
 80017ec:	40021000 	.word	0x40021000
 80017f0:	48000400 	.word	0x48000400
 80017f4:	20000310 	.word	0x20000310
 80017f8:	40013800 	.word	0x40013800
 80017fc:	20000478 	.word	0x20000478
 8001800:	40012400 	.word	0x40012400
 8001804:	200003dc 	.word	0x200003dc
 8001808:	40000400 	.word	0x40000400
 800180c:	20000424 	.word	0x20000424
 8001810:	40003000 	.word	0x40003000
 8001814:	00000fff 	.word	0x00000fff
 8001818:	20000394 	.word	0x20000394
 800181c:	40002000 	.word	0x40002000
 8001820:	20000050 	.word	0x20000050
 8001824:	200002c9 	.word	0x200002c9
 8001828:	200002c8 	.word	0x200002c8
 800182c:	200002b8 	.word	0x200002b8
 8001830:	00000266 	.word	0x00000266

08001834 <Error_Handler>:
 8001834:	b672      	cpsid	i
 8001836:	e7fe      	b.n	8001836 <Error_Handler+0x2>

08001838 <HAL_MspInit>:
 8001838:	2101      	movs	r1, #1
 800183a:	4b0a      	ldr	r3, [pc, #40]	@ (8001864 <HAL_MspInit+0x2c>)
 800183c:	b082      	sub	sp, #8
 800183e:	699a      	ldr	r2, [r3, #24]
 8001840:	430a      	orrs	r2, r1
 8001842:	619a      	str	r2, [r3, #24]
 8001844:	699a      	ldr	r2, [r3, #24]
 8001846:	400a      	ands	r2, r1
 8001848:	2180      	movs	r1, #128	@ 0x80
 800184a:	9200      	str	r2, [sp, #0]
 800184c:	9a00      	ldr	r2, [sp, #0]
 800184e:	69da      	ldr	r2, [r3, #28]
 8001850:	0549      	lsls	r1, r1, #21
 8001852:	430a      	orrs	r2, r1
 8001854:	61da      	str	r2, [r3, #28]
 8001856:	69db      	ldr	r3, [r3, #28]
 8001858:	400b      	ands	r3, r1
 800185a:	9301      	str	r3, [sp, #4]
 800185c:	9b01      	ldr	r3, [sp, #4]
 800185e:	b002      	add	sp, #8
 8001860:	4770      	bx	lr
 8001862:	46c0      	nop			@ (mov r8, r8)
 8001864:	40021000 	.word	0x40021000

08001868 <HAL_ADC_MspInit>:
 8001868:	b570      	push	{r4, r5, r6, lr}
 800186a:	0005      	movs	r5, r0
 800186c:	b088      	sub	sp, #32
 800186e:	2214      	movs	r2, #20
 8001870:	2100      	movs	r1, #0
 8001872:	a803      	add	r0, sp, #12
 8001874:	f002 f9ce 	bl	8003c14 <memset>
 8001878:	4b20      	ldr	r3, [pc, #128]	@ (80018fc <HAL_ADC_MspInit+0x94>)
 800187a:	682a      	ldr	r2, [r5, #0]
 800187c:	429a      	cmp	r2, r3
 800187e:	d13b      	bne.n	80018f8 <HAL_ADC_MspInit+0x90>
 8001880:	2680      	movs	r6, #128	@ 0x80
 8001882:	2180      	movs	r1, #128	@ 0x80
 8001884:	4b1e      	ldr	r3, [pc, #120]	@ (8001900 <HAL_ADC_MspInit+0x98>)
 8001886:	00b6      	lsls	r6, r6, #2
 8001888:	699a      	ldr	r2, [r3, #24]
 800188a:	0289      	lsls	r1, r1, #10
 800188c:	4332      	orrs	r2, r6
 800188e:	619a      	str	r2, [r3, #24]
 8001890:	699a      	ldr	r2, [r3, #24]
 8001892:	2090      	movs	r0, #144	@ 0x90
 8001894:	4032      	ands	r2, r6
 8001896:	9201      	str	r2, [sp, #4]
 8001898:	9a01      	ldr	r2, [sp, #4]
 800189a:	695a      	ldr	r2, [r3, #20]
 800189c:	05c0      	lsls	r0, r0, #23
 800189e:	430a      	orrs	r2, r1
 80018a0:	615a      	str	r2, [r3, #20]
 80018a2:	695b      	ldr	r3, [r3, #20]
 80018a4:	400b      	ands	r3, r1
 80018a6:	9302      	str	r3, [sp, #8]
 80018a8:	9b02      	ldr	r3, [sp, #8]
 80018aa:	2301      	movs	r3, #1
 80018ac:	a903      	add	r1, sp, #12
 80018ae:	9303      	str	r3, [sp, #12]
 80018b0:	3302      	adds	r3, #2
 80018b2:	9304      	str	r3, [sp, #16]
 80018b4:	f000 ff08 	bl	80026c8 <HAL_GPIO_Init>
 80018b8:	2280      	movs	r2, #128	@ 0x80
 80018ba:	4c12      	ldr	r4, [pc, #72]	@ (8001904 <HAL_ADC_MspInit+0x9c>)
 80018bc:	4b12      	ldr	r3, [pc, #72]	@ (8001908 <HAL_ADC_MspInit+0xa0>)
 80018be:	60e2      	str	r2, [r4, #12]
 80018c0:	2280      	movs	r2, #128	@ 0x80
 80018c2:	0112      	lsls	r2, r2, #4
 80018c4:	6023      	str	r3, [r4, #0]
 80018c6:	6162      	str	r2, [r4, #20]
 80018c8:	2300      	movs	r3, #0
 80018ca:	2220      	movs	r2, #32
 80018cc:	0020      	movs	r0, r4
 80018ce:	6063      	str	r3, [r4, #4]
 80018d0:	60a3      	str	r3, [r4, #8]
 80018d2:	6126      	str	r6, [r4, #16]
 80018d4:	61a2      	str	r2, [r4, #24]
 80018d6:	61e3      	str	r3, [r4, #28]
 80018d8:	f000 fce6 	bl	80022a8 <HAL_DMA_Init>
 80018dc:	2800      	cmp	r0, #0
 80018de:	d001      	beq.n	80018e4 <HAL_ADC_MspInit+0x7c>
 80018e0:	f7ff ffa8 	bl	8001834 <Error_Handler>
 80018e4:	2200      	movs	r2, #0
 80018e6:	200c      	movs	r0, #12
 80018e8:	0011      	movs	r1, r2
 80018ea:	632c      	str	r4, [r5, #48]	@ 0x30
 80018ec:	6265      	str	r5, [r4, #36]	@ 0x24
 80018ee:	f000 fc8b 	bl	8002208 <HAL_NVIC_SetPriority>
 80018f2:	200c      	movs	r0, #12
 80018f4:	f000 fcb2 	bl	800225c <HAL_NVIC_EnableIRQ>
 80018f8:	b008      	add	sp, #32
 80018fa:	bd70      	pop	{r4, r5, r6, pc}
 80018fc:	40012400 	.word	0x40012400
 8001900:	40021000 	.word	0x40021000
 8001904:	20000434 	.word	0x20000434
 8001908:	40020008 	.word	0x40020008

0800190c <HAL_TIM_Base_MspInit>:
 800190c:	b507      	push	{r0, r1, r2, lr}
 800190e:	6803      	ldr	r3, [r0, #0]
 8001910:	4a11      	ldr	r2, [pc, #68]	@ (8001958 <HAL_TIM_Base_MspInit+0x4c>)
 8001912:	4293      	cmp	r3, r2
 8001914:	d111      	bne.n	800193a <HAL_TIM_Base_MspInit+0x2e>
 8001916:	2102      	movs	r1, #2
 8001918:	4b10      	ldr	r3, [pc, #64]	@ (800195c <HAL_TIM_Base_MspInit+0x50>)
 800191a:	2010      	movs	r0, #16
 800191c:	69da      	ldr	r2, [r3, #28]
 800191e:	430a      	orrs	r2, r1
 8001920:	61da      	str	r2, [r3, #28]
 8001922:	2200      	movs	r2, #0
 8001924:	69db      	ldr	r3, [r3, #28]
 8001926:	400b      	ands	r3, r1
 8001928:	9300      	str	r3, [sp, #0]
 800192a:	0011      	movs	r1, r2
 800192c:	9b00      	ldr	r3, [sp, #0]
 800192e:	f000 fc6b 	bl	8002208 <HAL_NVIC_SetPriority>
 8001932:	2010      	movs	r0, #16
 8001934:	f000 fc92 	bl	800225c <HAL_NVIC_EnableIRQ>
 8001938:	bd07      	pop	{r0, r1, r2, pc}
 800193a:	4a09      	ldr	r2, [pc, #36]	@ (8001960 <HAL_TIM_Base_MspInit+0x54>)
 800193c:	4293      	cmp	r3, r2
 800193e:	d1fb      	bne.n	8001938 <HAL_TIM_Base_MspInit+0x2c>
 8001940:	2180      	movs	r1, #128	@ 0x80
 8001942:	4b06      	ldr	r3, [pc, #24]	@ (800195c <HAL_TIM_Base_MspInit+0x50>)
 8001944:	0049      	lsls	r1, r1, #1
 8001946:	69da      	ldr	r2, [r3, #28]
 8001948:	430a      	orrs	r2, r1
 800194a:	61da      	str	r2, [r3, #28]
 800194c:	69db      	ldr	r3, [r3, #28]
 800194e:	400b      	ands	r3, r1
 8001950:	9301      	str	r3, [sp, #4]
 8001952:	9b01      	ldr	r3, [sp, #4]
 8001954:	e7f0      	b.n	8001938 <HAL_TIM_Base_MspInit+0x2c>
 8001956:	46c0      	nop			@ (mov r8, r8)
 8001958:	40000400 	.word	0x40000400
 800195c:	40021000 	.word	0x40021000
 8001960:	40002000 	.word	0x40002000

08001964 <HAL_UART_MspInit>:
 8001964:	b530      	push	{r4, r5, lr}
 8001966:	0005      	movs	r5, r0
 8001968:	b089      	sub	sp, #36	@ 0x24
 800196a:	2214      	movs	r2, #20
 800196c:	2100      	movs	r1, #0
 800196e:	a803      	add	r0, sp, #12
 8001970:	f002 f950 	bl	8003c14 <memset>
 8001974:	4b21      	ldr	r3, [pc, #132]	@ (80019fc <HAL_UART_MspInit+0x98>)
 8001976:	682a      	ldr	r2, [r5, #0]
 8001978:	429a      	cmp	r2, r3
 800197a:	d13d      	bne.n	80019f8 <HAL_UART_MspInit+0x94>
 800197c:	2180      	movs	r1, #128	@ 0x80
 800197e:	4b20      	ldr	r3, [pc, #128]	@ (8001a00 <HAL_UART_MspInit+0x9c>)
 8001980:	01c9      	lsls	r1, r1, #7
 8001982:	699a      	ldr	r2, [r3, #24]
 8001984:	2090      	movs	r0, #144	@ 0x90
 8001986:	430a      	orrs	r2, r1
 8001988:	619a      	str	r2, [r3, #24]
 800198a:	699a      	ldr	r2, [r3, #24]
 800198c:	05c0      	lsls	r0, r0, #23
 800198e:	400a      	ands	r2, r1
 8001990:	2180      	movs	r1, #128	@ 0x80
 8001992:	9201      	str	r2, [sp, #4]
 8001994:	9a01      	ldr	r2, [sp, #4]
 8001996:	695a      	ldr	r2, [r3, #20]
 8001998:	0289      	lsls	r1, r1, #10
 800199a:	430a      	orrs	r2, r1
 800199c:	615a      	str	r2, [r3, #20]
 800199e:	695b      	ldr	r3, [r3, #20]
 80019a0:	400b      	ands	r3, r1
 80019a2:	9302      	str	r3, [sp, #8]
 80019a4:	9b02      	ldr	r3, [sp, #8]
 80019a6:	4b17      	ldr	r3, [pc, #92]	@ (8001a04 <HAL_UART_MspInit+0xa0>)
 80019a8:	a903      	add	r1, sp, #12
 80019aa:	9303      	str	r3, [sp, #12]
 80019ac:	2302      	movs	r3, #2
 80019ae:	9304      	str	r3, [sp, #16]
 80019b0:	3301      	adds	r3, #1
 80019b2:	9306      	str	r3, [sp, #24]
 80019b4:	3b02      	subs	r3, #2
 80019b6:	9307      	str	r3, [sp, #28]
 80019b8:	f000 fe86 	bl	80026c8 <HAL_GPIO_Init>
 80019bc:	4c12      	ldr	r4, [pc, #72]	@ (8001a08 <HAL_UART_MspInit+0xa4>)
 80019be:	4b13      	ldr	r3, [pc, #76]	@ (8001a0c <HAL_UART_MspInit+0xa8>)
 80019c0:	2280      	movs	r2, #128	@ 0x80
 80019c2:	6023      	str	r3, [r4, #0]
 80019c4:	2310      	movs	r3, #16
 80019c6:	6063      	str	r3, [r4, #4]
 80019c8:	2300      	movs	r3, #0
 80019ca:	0020      	movs	r0, r4
 80019cc:	60a3      	str	r3, [r4, #8]
 80019ce:	60e2      	str	r2, [r4, #12]
 80019d0:	6123      	str	r3, [r4, #16]
 80019d2:	6163      	str	r3, [r4, #20]
 80019d4:	61a3      	str	r3, [r4, #24]
 80019d6:	61e3      	str	r3, [r4, #28]
 80019d8:	f000 fc66 	bl	80022a8 <HAL_DMA_Init>
 80019dc:	2800      	cmp	r0, #0
 80019de:	d001      	beq.n	80019e4 <HAL_UART_MspInit+0x80>
 80019e0:	f7ff ff28 	bl	8001834 <Error_Handler>
 80019e4:	2200      	movs	r2, #0
 80019e6:	201b      	movs	r0, #27
 80019e8:	0011      	movs	r1, r2
 80019ea:	66ec      	str	r4, [r5, #108]	@ 0x6c
 80019ec:	6265      	str	r5, [r4, #36]	@ 0x24
 80019ee:	f000 fc0b 	bl	8002208 <HAL_NVIC_SetPriority>
 80019f2:	201b      	movs	r0, #27
 80019f4:	f000 fc32 	bl	800225c <HAL_NVIC_EnableIRQ>
 80019f8:	b009      	add	sp, #36	@ 0x24
 80019fa:	bd30      	pop	{r4, r5, pc}
 80019fc:	40013800 	.word	0x40013800
 8001a00:	40021000 	.word	0x40021000
 8001a04:	0000100c 	.word	0x0000100c
 8001a08:	200002cc 	.word	0x200002cc
 8001a0c:	4002001c 	.word	0x4002001c

08001a10 <NMI_Handler>:
 8001a10:	e7fe      	b.n	8001a10 <NMI_Handler>

08001a12 <HardFault_Handler>:
 8001a12:	e7fe      	b.n	8001a12 <HardFault_Handler>

08001a14 <SVC_Handler>:
 8001a14:	4770      	bx	lr

08001a16 <PendSV_Handler>:
 8001a16:	4770      	bx	lr

08001a18 <SysTick_Handler>:
 8001a18:	b510      	push	{r4, lr}
 8001a1a:	f000 f889 	bl	8001b30 <HAL_IncTick>
 8001a1e:	bd10      	pop	{r4, pc}

08001a20 <DMA1_Channel1_IRQHandler>:
 8001a20:	b510      	push	{r4, lr}
 8001a22:	4802      	ldr	r0, [pc, #8]	@ (8001a2c <DMA1_Channel1_IRQHandler+0xc>)
 8001a24:	f000 fced 	bl	8002402 <HAL_DMA_IRQHandler>
 8001a28:	bd10      	pop	{r4, pc}
 8001a2a:	46c0      	nop			@ (mov r8, r8)
 8001a2c:	20000434 	.word	0x20000434

08001a30 <DMA1_Channel2_3_IRQHandler>:
 8001a30:	b510      	push	{r4, lr}
 8001a32:	4802      	ldr	r0, [pc, #8]	@ (8001a3c <DMA1_Channel2_3_IRQHandler+0xc>)
 8001a34:	f000 fce5 	bl	8002402 <HAL_DMA_IRQHandler>
 8001a38:	bd10      	pop	{r4, pc}
 8001a3a:	46c0      	nop			@ (mov r8, r8)
 8001a3c:	200002cc 	.word	0x200002cc

08001a40 <ADC1_IRQHandler>:
 8001a40:	b510      	push	{r4, lr}
 8001a42:	4802      	ldr	r0, [pc, #8]	@ (8001a4c <ADC1_IRQHandler+0xc>)
 8001a44:	f000 faac 	bl	8001fa0 <HAL_ADC_IRQHandler>
 8001a48:	bd10      	pop	{r4, pc}
 8001a4a:	46c0      	nop			@ (mov r8, r8)
 8001a4c:	20000478 	.word	0x20000478

08001a50 <TIM3_IRQHandler>:
 8001a50:	b510      	push	{r4, lr}
 8001a52:	4802      	ldr	r0, [pc, #8]	@ (8001a5c <TIM3_IRQHandler+0xc>)
 8001a54:	f001 faa8 	bl	8002fa8 <HAL_TIM_IRQHandler>
 8001a58:	bd10      	pop	{r4, pc}
 8001a5a:	46c0      	nop			@ (mov r8, r8)
 8001a5c:	200003dc 	.word	0x200003dc

08001a60 <USART1_IRQHandler>:
 8001a60:	b510      	push	{r4, lr}
 8001a62:	4802      	ldr	r0, [pc, #8]	@ (8001a6c <USART1_IRQHandler+0xc>)
 8001a64:	f001 fd32 	bl	80034cc <HAL_UART_IRQHandler>
 8001a68:	bd10      	pop	{r4, pc}
 8001a6a:	46c0      	nop			@ (mov r8, r8)
 8001a6c:	20000310 	.word	0x20000310

08001a70 <SystemInit>:
 8001a70:	4770      	bx	lr
	...

08001a74 <Reset_Handler>:
 8001a74:	480d      	ldr	r0, [pc, #52]	@ (8001aac <LoopForever+0x2>)
 8001a76:	4685      	mov	sp, r0
 8001a78:	480d      	ldr	r0, [pc, #52]	@ (8001ab0 <LoopForever+0x6>)
 8001a7a:	490e      	ldr	r1, [pc, #56]	@ (8001ab4 <LoopForever+0xa>)
 8001a7c:	4a0e      	ldr	r2, [pc, #56]	@ (8001ab8 <LoopForever+0xe>)
 8001a7e:	2300      	movs	r3, #0
 8001a80:	e002      	b.n	8001a88 <LoopCopyDataInit>

08001a82 <CopyDataInit>:
 8001a82:	58d4      	ldr	r4, [r2, r3]
 8001a84:	50c4      	str	r4, [r0, r3]
 8001a86:	3304      	adds	r3, #4

08001a88 <LoopCopyDataInit>:
 8001a88:	18c4      	adds	r4, r0, r3
 8001a8a:	428c      	cmp	r4, r1
 8001a8c:	d3f9      	bcc.n	8001a82 <CopyDataInit>
 8001a8e:	4a0b      	ldr	r2, [pc, #44]	@ (8001abc <LoopForever+0x12>)
 8001a90:	4c0b      	ldr	r4, [pc, #44]	@ (8001ac0 <LoopForever+0x16>)
 8001a92:	2300      	movs	r3, #0
 8001a94:	e001      	b.n	8001a9a <LoopFillZerobss>

08001a96 <FillZerobss>:
 8001a96:	6013      	str	r3, [r2, #0]
 8001a98:	3204      	adds	r2, #4

08001a9a <LoopFillZerobss>:
 8001a9a:	42a2      	cmp	r2, r4
 8001a9c:	d3fb      	bcc.n	8001a96 <FillZerobss>
 8001a9e:	f7ff ffe7 	bl	8001a70 <SystemInit>
 8001aa2:	f002 f8bf 	bl	8003c24 <__libc_init_array>
 8001aa6:	f7ff fd51 	bl	800154c <main>

08001aaa <LoopForever>:
 8001aaa:	e7fe      	b.n	8001aaa <LoopForever>
 8001aac:	20001000 	.word	0x20001000
 8001ab0:	20000000 	.word	0x20000000
 8001ab4:	2000000c 	.word	0x2000000c
 8001ab8:	08003f20 	.word	0x08003f20
 8001abc:	20000010 	.word	0x20000010
 8001ac0:	200004e0 	.word	0x200004e0

08001ac4 <DMA1_Channel4_5_IRQHandler>:
 8001ac4:	e7fe      	b.n	8001ac4 <DMA1_Channel4_5_IRQHandler>
	...

08001ac8 <HAL_InitTick>:
 8001ac8:	b570      	push	{r4, r5, r6, lr}
 8001aca:	0005      	movs	r5, r0
 8001acc:	20fa      	movs	r0, #250	@ 0xfa
 8001ace:	4b0d      	ldr	r3, [pc, #52]	@ (8001b04 <HAL_InitTick+0x3c>)
 8001ad0:	0080      	lsls	r0, r0, #2
 8001ad2:	7819      	ldrb	r1, [r3, #0]
 8001ad4:	f7fe fb22 	bl	800011c <__udivsi3>
 8001ad8:	4c0b      	ldr	r4, [pc, #44]	@ (8001b08 <HAL_InitTick+0x40>)
 8001ada:	0001      	movs	r1, r0
 8001adc:	6820      	ldr	r0, [r4, #0]
 8001ade:	f7fe fb1d 	bl	800011c <__udivsi3>
 8001ae2:	f000 fbc7 	bl	8002274 <HAL_SYSTICK_Config>
 8001ae6:	0004      	movs	r4, r0
 8001ae8:	2001      	movs	r0, #1
 8001aea:	2c00      	cmp	r4, #0
 8001aec:	d109      	bne.n	8001b02 <HAL_InitTick+0x3a>
 8001aee:	2d03      	cmp	r5, #3
 8001af0:	d807      	bhi.n	8001b02 <HAL_InitTick+0x3a>
 8001af2:	3802      	subs	r0, #2
 8001af4:	0022      	movs	r2, r4
 8001af6:	0029      	movs	r1, r5
 8001af8:	f000 fb86 	bl	8002208 <HAL_NVIC_SetPriority>
 8001afc:	0020      	movs	r0, r4
 8001afe:	4b03      	ldr	r3, [pc, #12]	@ (8001b0c <HAL_InitTick+0x44>)
 8001b00:	601d      	str	r5, [r3, #0]
 8001b02:	bd70      	pop	{r4, r5, r6, pc}
 8001b04:	20000004 	.word	0x20000004
 8001b08:	20000000 	.word	0x20000000
 8001b0c:	20000008 	.word	0x20000008

08001b10 <HAL_Init>:
 8001b10:	2310      	movs	r3, #16
 8001b12:	4a06      	ldr	r2, [pc, #24]	@ (8001b2c <HAL_Init+0x1c>)
 8001b14:	b510      	push	{r4, lr}
 8001b16:	6811      	ldr	r1, [r2, #0]
 8001b18:	2000      	movs	r0, #0
 8001b1a:	430b      	orrs	r3, r1
 8001b1c:	6013      	str	r3, [r2, #0]
 8001b1e:	f7ff ffd3 	bl	8001ac8 <HAL_InitTick>
 8001b22:	f7ff fe89 	bl	8001838 <HAL_MspInit>
 8001b26:	2000      	movs	r0, #0
 8001b28:	bd10      	pop	{r4, pc}
 8001b2a:	46c0      	nop			@ (mov r8, r8)
 8001b2c:	40022000 	.word	0x40022000

08001b30 <HAL_IncTick>:
 8001b30:	4a03      	ldr	r2, [pc, #12]	@ (8001b40 <HAL_IncTick+0x10>)
 8001b32:	4b04      	ldr	r3, [pc, #16]	@ (8001b44 <HAL_IncTick+0x14>)
 8001b34:	6811      	ldr	r1, [r2, #0]
 8001b36:	781b      	ldrb	r3, [r3, #0]
 8001b38:	185b      	adds	r3, r3, r1
 8001b3a:	6013      	str	r3, [r2, #0]
 8001b3c:	4770      	bx	lr
 8001b3e:	46c0      	nop			@ (mov r8, r8)
 8001b40:	200004b8 	.word	0x200004b8
 8001b44:	20000004 	.word	0x20000004

08001b48 <HAL_GetTick>:
 8001b48:	4b01      	ldr	r3, [pc, #4]	@ (8001b50 <HAL_GetTick+0x8>)
 8001b4a:	6818      	ldr	r0, [r3, #0]
 8001b4c:	4770      	bx	lr
 8001b4e:	46c0      	nop			@ (mov r8, r8)
 8001b50:	200004b8 	.word	0x200004b8

08001b54 <ADC_ConversionStop>:
 8001b54:	2204      	movs	r2, #4
 8001b56:	6803      	ldr	r3, [r0, #0]
 8001b58:	b570      	push	{r4, r5, r6, lr}
 8001b5a:	6899      	ldr	r1, [r3, #8]
 8001b5c:	0004      	movs	r4, r0
 8001b5e:	4211      	tst	r1, r2
 8001b60:	d101      	bne.n	8001b66 <ADC_ConversionStop+0x12>
 8001b62:	2000      	movs	r0, #0
 8001b64:	bd70      	pop	{r4, r5, r6, pc}
 8001b66:	6899      	ldr	r1, [r3, #8]
 8001b68:	4211      	tst	r1, r2
 8001b6a:	d006      	beq.n	8001b7a <ADC_ConversionStop+0x26>
 8001b6c:	689a      	ldr	r2, [r3, #8]
 8001b6e:	0792      	lsls	r2, r2, #30
 8001b70:	d403      	bmi.n	8001b7a <ADC_ConversionStop+0x26>
 8001b72:	2210      	movs	r2, #16
 8001b74:	6899      	ldr	r1, [r3, #8]
 8001b76:	430a      	orrs	r2, r1
 8001b78:	609a      	str	r2, [r3, #8]
 8001b7a:	f7ff ffe5 	bl	8001b48 <HAL_GetTick>
 8001b7e:	2604      	movs	r6, #4
 8001b80:	0005      	movs	r5, r0
 8001b82:	6823      	ldr	r3, [r4, #0]
 8001b84:	689b      	ldr	r3, [r3, #8]
 8001b86:	4233      	tst	r3, r6
 8001b88:	d0eb      	beq.n	8001b62 <ADC_ConversionStop+0xe>
 8001b8a:	f7ff ffdd 	bl	8001b48 <HAL_GetTick>
 8001b8e:	1b40      	subs	r0, r0, r5
 8001b90:	2802      	cmp	r0, #2
 8001b92:	d9f6      	bls.n	8001b82 <ADC_ConversionStop+0x2e>
 8001b94:	2310      	movs	r3, #16
 8001b96:	2001      	movs	r0, #1
 8001b98:	6ba2      	ldr	r2, [r4, #56]	@ 0x38
 8001b9a:	4313      	orrs	r3, r2
 8001b9c:	63a3      	str	r3, [r4, #56]	@ 0x38
 8001b9e:	6be3      	ldr	r3, [r4, #60]	@ 0x3c
 8001ba0:	4303      	orrs	r3, r0
 8001ba2:	63e3      	str	r3, [r4, #60]	@ 0x3c
 8001ba4:	e7de      	b.n	8001b64 <ADC_ConversionStop+0x10>

08001ba6 <ADC_Disable>:
 8001ba6:	2103      	movs	r1, #3
 8001ba8:	6803      	ldr	r3, [r0, #0]
 8001baa:	b570      	push	{r4, r5, r6, lr}
 8001bac:	689a      	ldr	r2, [r3, #8]
 8001bae:	0004      	movs	r4, r0
 8001bb0:	400a      	ands	r2, r1
 8001bb2:	2a01      	cmp	r2, #1
 8001bb4:	d001      	beq.n	8001bba <ADC_Disable+0x14>
 8001bb6:	2000      	movs	r0, #0
 8001bb8:	bd70      	pop	{r4, r5, r6, pc}
 8001bba:	6819      	ldr	r1, [r3, #0]
 8001bbc:	4211      	tst	r1, r2
 8001bbe:	d102      	bne.n	8001bc6 <ADC_Disable+0x20>
 8001bc0:	68da      	ldr	r2, [r3, #12]
 8001bc2:	0412      	lsls	r2, r2, #16
 8001bc4:	d5f7      	bpl.n	8001bb6 <ADC_Disable+0x10>
 8001bc6:	2205      	movs	r2, #5
 8001bc8:	689d      	ldr	r5, [r3, #8]
 8001bca:	4015      	ands	r5, r2
 8001bcc:	2d01      	cmp	r5, #1
 8001bce:	d118      	bne.n	8001c02 <ADC_Disable+0x5c>
 8001bd0:	6899      	ldr	r1, [r3, #8]
 8001bd2:	3a03      	subs	r2, #3
 8001bd4:	430a      	orrs	r2, r1
 8001bd6:	609a      	str	r2, [r3, #8]
 8001bd8:	2203      	movs	r2, #3
 8001bda:	601a      	str	r2, [r3, #0]
 8001bdc:	f7ff ffb4 	bl	8001b48 <HAL_GetTick>
 8001be0:	0006      	movs	r6, r0
 8001be2:	6823      	ldr	r3, [r4, #0]
 8001be4:	689b      	ldr	r3, [r3, #8]
 8001be6:	422b      	tst	r3, r5
 8001be8:	d0e5      	beq.n	8001bb6 <ADC_Disable+0x10>
 8001bea:	f7ff ffad 	bl	8001b48 <HAL_GetTick>
 8001bee:	1b80      	subs	r0, r0, r6
 8001bf0:	2802      	cmp	r0, #2
 8001bf2:	d9f6      	bls.n	8001be2 <ADC_Disable+0x3c>
 8001bf4:	2310      	movs	r3, #16
 8001bf6:	6ba2      	ldr	r2, [r4, #56]	@ 0x38
 8001bf8:	4313      	orrs	r3, r2
 8001bfa:	63a3      	str	r3, [r4, #56]	@ 0x38
 8001bfc:	6be3      	ldr	r3, [r4, #60]	@ 0x3c
 8001bfe:	432b      	orrs	r3, r5
 8001c00:	e006      	b.n	8001c10 <ADC_Disable+0x6a>
 8001c02:	2310      	movs	r3, #16
 8001c04:	6ba2      	ldr	r2, [r4, #56]	@ 0x38
 8001c06:	4313      	orrs	r3, r2
 8001c08:	63a3      	str	r3, [r4, #56]	@ 0x38
 8001c0a:	2301      	movs	r3, #1
 8001c0c:	6be2      	ldr	r2, [r4, #60]	@ 0x3c
 8001c0e:	4313      	orrs	r3, r2
 8001c10:	2001      	movs	r0, #1
 8001c12:	63e3      	str	r3, [r4, #60]	@ 0x3c
 8001c14:	e7d0      	b.n	8001bb8 <ADC_Disable+0x12>
	...

08001c18 <ADC_Enable.constprop.0>:
 8001c18:	2300      	movs	r3, #0
 8001c1a:	b573      	push	{r0, r1, r4, r5, r6, lr}
 8001c1c:	2103      	movs	r1, #3
 8001c1e:	9301      	str	r3, [sp, #4]
 8001c20:	6803      	ldr	r3, [r0, #0]
 8001c22:	0004      	movs	r4, r0
 8001c24:	689a      	ldr	r2, [r3, #8]
 8001c26:	400a      	ands	r2, r1
 8001c28:	2a01      	cmp	r2, #1
 8001c2a:	d107      	bne.n	8001c3c <ADC_Enable.constprop.0+0x24>
 8001c2c:	6819      	ldr	r1, [r3, #0]
 8001c2e:	4211      	tst	r1, r2
 8001c30:	d001      	beq.n	8001c36 <ADC_Enable.constprop.0+0x1e>
 8001c32:	2000      	movs	r0, #0
 8001c34:	bd76      	pop	{r1, r2, r4, r5, r6, pc}
 8001c36:	68da      	ldr	r2, [r3, #12]
 8001c38:	0412      	lsls	r2, r2, #16
 8001c3a:	d4fa      	bmi.n	8001c32 <ADC_Enable.constprop.0+0x1a>
 8001c3c:	6899      	ldr	r1, [r3, #8]
 8001c3e:	4a19      	ldr	r2, [pc, #100]	@ (8001ca4 <ADC_Enable.constprop.0+0x8c>)
 8001c40:	4211      	tst	r1, r2
 8001c42:	d009      	beq.n	8001c58 <ADC_Enable.constprop.0+0x40>
 8001c44:	2310      	movs	r3, #16
 8001c46:	6ba2      	ldr	r2, [r4, #56]	@ 0x38
 8001c48:	4313      	orrs	r3, r2
 8001c4a:	63a3      	str	r3, [r4, #56]	@ 0x38
 8001c4c:	2301      	movs	r3, #1
 8001c4e:	6be2      	ldr	r2, [r4, #60]	@ 0x3c
 8001c50:	4313      	orrs	r3, r2
 8001c52:	2001      	movs	r0, #1
 8001c54:	63e3      	str	r3, [r4, #60]	@ 0x3c
 8001c56:	e7ed      	b.n	8001c34 <ADC_Enable.constprop.0+0x1c>
 8001c58:	2201      	movs	r2, #1
 8001c5a:	6899      	ldr	r1, [r3, #8]
 8001c5c:	430a      	orrs	r2, r1
 8001c5e:	609a      	str	r2, [r3, #8]
 8001c60:	4b11      	ldr	r3, [pc, #68]	@ (8001ca8 <ADC_Enable.constprop.0+0x90>)
 8001c62:	4912      	ldr	r1, [pc, #72]	@ (8001cac <ADC_Enable.constprop.0+0x94>)
 8001c64:	6818      	ldr	r0, [r3, #0]
 8001c66:	f7fe fa59 	bl	800011c <__udivsi3>
 8001c6a:	9001      	str	r0, [sp, #4]
 8001c6c:	9b01      	ldr	r3, [sp, #4]
 8001c6e:	2b00      	cmp	r3, #0
 8001c70:	d113      	bne.n	8001c9a <ADC_Enable.constprop.0+0x82>
 8001c72:	f7ff ff69 	bl	8001b48 <HAL_GetTick>
 8001c76:	2601      	movs	r6, #1
 8001c78:	0005      	movs	r5, r0
 8001c7a:	6823      	ldr	r3, [r4, #0]
 8001c7c:	681b      	ldr	r3, [r3, #0]
 8001c7e:	4233      	tst	r3, r6
 8001c80:	d1d7      	bne.n	8001c32 <ADC_Enable.constprop.0+0x1a>
 8001c82:	f7ff ff61 	bl	8001b48 <HAL_GetTick>
 8001c86:	1b40      	subs	r0, r0, r5
 8001c88:	2802      	cmp	r0, #2
 8001c8a:	d9f6      	bls.n	8001c7a <ADC_Enable.constprop.0+0x62>
 8001c8c:	2310      	movs	r3, #16
 8001c8e:	6ba2      	ldr	r2, [r4, #56]	@ 0x38
 8001c90:	4313      	orrs	r3, r2
 8001c92:	63a3      	str	r3, [r4, #56]	@ 0x38
 8001c94:	6be3      	ldr	r3, [r4, #60]	@ 0x3c
 8001c96:	4333      	orrs	r3, r6
 8001c98:	e7db      	b.n	8001c52 <ADC_Enable.constprop.0+0x3a>
 8001c9a:	9b01      	ldr	r3, [sp, #4]
 8001c9c:	3b01      	subs	r3, #1
 8001c9e:	9301      	str	r3, [sp, #4]
 8001ca0:	e7e4      	b.n	8001c6c <ADC_Enable.constprop.0+0x54>
 8001ca2:	46c0      	nop			@ (mov r8, r8)
 8001ca4:	80000017 	.word	0x80000017
 8001ca8:	20000000 	.word	0x20000000
 8001cac:	000f4240 	.word	0x000f4240

08001cb0 <HAL_ADC_Init>:
 8001cb0:	b570      	push	{r4, r5, r6, lr}
 8001cb2:	1e04      	subs	r4, r0, #0
 8001cb4:	d100      	bne.n	8001cb8 <HAL_ADC_Init+0x8>
 8001cb6:	e090      	b.n	8001dda <HAL_ADC_Init+0x12a>
 8001cb8:	6b83      	ldr	r3, [r0, #56]	@ 0x38
 8001cba:	2b00      	cmp	r3, #0
 8001cbc:	d105      	bne.n	8001cca <HAL_ADC_Init+0x1a>
 8001cbe:	0002      	movs	r2, r0
 8001cc0:	3234      	adds	r2, #52	@ 0x34
 8001cc2:	63c3      	str	r3, [r0, #60]	@ 0x3c
 8001cc4:	7013      	strb	r3, [r2, #0]
 8001cc6:	f7ff fdcf 	bl	8001868 <HAL_ADC_MspInit>
 8001cca:	6ba3      	ldr	r3, [r4, #56]	@ 0x38
 8001ccc:	06db      	lsls	r3, r3, #27
 8001cce:	d500      	bpl.n	8001cd2 <HAL_ADC_Init+0x22>
 8001cd0:	e085      	b.n	8001dde <HAL_ADC_Init+0x12e>
 8001cd2:	6822      	ldr	r2, [r4, #0]
 8001cd4:	6893      	ldr	r3, [r2, #8]
 8001cd6:	075b      	lsls	r3, r3, #29
 8001cd8:	d500      	bpl.n	8001cdc <HAL_ADC_Init+0x2c>
 8001cda:	e080      	b.n	8001dde <HAL_ADC_Init+0x12e>
 8001cdc:	6ba1      	ldr	r1, [r4, #56]	@ 0x38
 8001cde:	4b42      	ldr	r3, [pc, #264]	@ (8001de8 <HAL_ADC_Init+0x138>)
 8001ce0:	4019      	ands	r1, r3
 8001ce2:	3306      	adds	r3, #6
 8001ce4:	33ff      	adds	r3, #255	@ 0xff
 8001ce6:	430b      	orrs	r3, r1
 8001ce8:	2103      	movs	r1, #3
 8001cea:	63a3      	str	r3, [r4, #56]	@ 0x38
 8001cec:	6893      	ldr	r3, [r2, #8]
 8001cee:	400b      	ands	r3, r1
 8001cf0:	2b01      	cmp	r3, #1
 8001cf2:	d105      	bne.n	8001d00 <HAL_ADC_Init+0x50>
 8001cf4:	6811      	ldr	r1, [r2, #0]
 8001cf6:	4219      	tst	r1, r3
 8001cf8:	d10e      	bne.n	8001d18 <HAL_ADC_Init+0x68>
 8001cfa:	68d3      	ldr	r3, [r2, #12]
 8001cfc:	041b      	lsls	r3, r3, #16
 8001cfe:	d40b      	bmi.n	8001d18 <HAL_ADC_Init+0x68>
 8001d00:	2118      	movs	r1, #24
 8001d02:	68d3      	ldr	r3, [r2, #12]
 8001d04:	438b      	bics	r3, r1
 8001d06:	68a1      	ldr	r1, [r4, #8]
 8001d08:	430b      	orrs	r3, r1
 8001d0a:	60d3      	str	r3, [r2, #12]
 8001d0c:	6913      	ldr	r3, [r2, #16]
 8001d0e:	6861      	ldr	r1, [r4, #4]
 8001d10:	009b      	lsls	r3, r3, #2
 8001d12:	089b      	lsrs	r3, r3, #2
 8001d14:	430b      	orrs	r3, r1
 8001d16:	6113      	str	r3, [r2, #16]
 8001d18:	68d3      	ldr	r3, [r2, #12]
 8001d1a:	4934      	ldr	r1, [pc, #208]	@ (8001dec <HAL_ADC_Init+0x13c>)
 8001d1c:	400b      	ands	r3, r1
 8001d1e:	60d3      	str	r3, [r2, #12]
 8001d20:	7e23      	ldrb	r3, [r4, #24]
 8001d22:	7e60      	ldrb	r0, [r4, #25]
 8001d24:	039b      	lsls	r3, r3, #14
 8001d26:	03c0      	lsls	r0, r0, #15
 8001d28:	4303      	orrs	r3, r0
 8001d2a:	7ea1      	ldrb	r1, [r4, #26]
 8001d2c:	68e0      	ldr	r0, [r4, #12]
 8001d2e:	4303      	orrs	r3, r0
 8001d30:	0348      	lsls	r0, r1, #13
 8001d32:	4303      	orrs	r3, r0
 8001d34:	1d60      	adds	r0, r4, #5
 8001d36:	7fc0      	ldrb	r0, [r0, #31]
 8001d38:	0040      	lsls	r0, r0, #1
 8001d3a:	4303      	orrs	r3, r0
 8001d3c:	6aa0      	ldr	r0, [r4, #40]	@ 0x28
 8001d3e:	3801      	subs	r0, #1
 8001d40:	1e45      	subs	r5, r0, #1
 8001d42:	41a8      	sbcs	r0, r5
 8001d44:	0300      	lsls	r0, r0, #12
 8001d46:	4303      	orrs	r3, r0
 8001d48:	6920      	ldr	r0, [r4, #16]
 8001d4a:	3802      	subs	r0, #2
 8001d4c:	4245      	negs	r5, r0
 8001d4e:	4168      	adcs	r0, r5
 8001d50:	0080      	lsls	r0, r0, #2
 8001d52:	4303      	orrs	r3, r0
 8001d54:	7ee0      	ldrb	r0, [r4, #27]
 8001d56:	2801      	cmp	r0, #1
 8001d58:	d104      	bne.n	8001d64 <HAL_ADC_Init+0xb4>
 8001d5a:	2900      	cmp	r1, #0
 8001d5c:	d12b      	bne.n	8001db6 <HAL_ADC_Init+0x106>
 8001d5e:	2180      	movs	r1, #128	@ 0x80
 8001d60:	0249      	lsls	r1, r1, #9
 8001d62:	430b      	orrs	r3, r1
 8001d64:	20c2      	movs	r0, #194	@ 0xc2
 8001d66:	69e1      	ldr	r1, [r4, #28]
 8001d68:	30ff      	adds	r0, #255	@ 0xff
 8001d6a:	4281      	cmp	r1, r0
 8001d6c:	d002      	beq.n	8001d74 <HAL_ADC_Init+0xc4>
 8001d6e:	6a20      	ldr	r0, [r4, #32]
 8001d70:	4301      	orrs	r1, r0
 8001d72:	430b      	orrs	r3, r1
 8001d74:	2080      	movs	r0, #128	@ 0x80
 8001d76:	68d1      	ldr	r1, [r2, #12]
 8001d78:	0540      	lsls	r0, r0, #21
 8001d7a:	4319      	orrs	r1, r3
 8001d7c:	60d1      	str	r1, [r2, #12]
 8001d7e:	6ae1      	ldr	r1, [r4, #44]	@ 0x2c
 8001d80:	4281      	cmp	r1, r0
 8001d82:	d002      	beq.n	8001d8a <HAL_ADC_Init+0xda>
 8001d84:	1e48      	subs	r0, r1, #1
 8001d86:	2806      	cmp	r0, #6
 8001d88:	d807      	bhi.n	8001d9a <HAL_ADC_Init+0xea>
 8001d8a:	2507      	movs	r5, #7
 8001d8c:	6950      	ldr	r0, [r2, #20]
 8001d8e:	4029      	ands	r1, r5
 8001d90:	43a8      	bics	r0, r5
 8001d92:	6150      	str	r0, [r2, #20]
 8001d94:	6950      	ldr	r0, [r2, #20]
 8001d96:	4301      	orrs	r1, r0
 8001d98:	6151      	str	r1, [r2, #20]
 8001d9a:	68d2      	ldr	r2, [r2, #12]
 8001d9c:	4914      	ldr	r1, [pc, #80]	@ (8001df0 <HAL_ADC_Init+0x140>)
 8001d9e:	400a      	ands	r2, r1
 8001da0:	429a      	cmp	r2, r3
 8001da2:	d110      	bne.n	8001dc6 <HAL_ADC_Init+0x116>
 8001da4:	2000      	movs	r0, #0
 8001da6:	2303      	movs	r3, #3
 8001da8:	63e0      	str	r0, [r4, #60]	@ 0x3c
 8001daa:	6ba2      	ldr	r2, [r4, #56]	@ 0x38
 8001dac:	439a      	bics	r2, r3
 8001dae:	3b02      	subs	r3, #2
 8001db0:	4313      	orrs	r3, r2
 8001db2:	63a3      	str	r3, [r4, #56]	@ 0x38
 8001db4:	bd70      	pop	{r4, r5, r6, pc}
 8001db6:	2120      	movs	r1, #32
 8001db8:	6ba5      	ldr	r5, [r4, #56]	@ 0x38
 8001dba:	4329      	orrs	r1, r5
 8001dbc:	63a1      	str	r1, [r4, #56]	@ 0x38
 8001dbe:	6be1      	ldr	r1, [r4, #60]	@ 0x3c
 8001dc0:	4308      	orrs	r0, r1
 8001dc2:	63e0      	str	r0, [r4, #60]	@ 0x3c
 8001dc4:	e7ce      	b.n	8001d64 <HAL_ADC_Init+0xb4>
 8001dc6:	2312      	movs	r3, #18
 8001dc8:	6ba2      	ldr	r2, [r4, #56]	@ 0x38
 8001dca:	439a      	bics	r2, r3
 8001dcc:	3b02      	subs	r3, #2
 8001dce:	4313      	orrs	r3, r2
 8001dd0:	63a3      	str	r3, [r4, #56]	@ 0x38
 8001dd2:	2301      	movs	r3, #1
 8001dd4:	6be2      	ldr	r2, [r4, #60]	@ 0x3c
 8001dd6:	4313      	orrs	r3, r2
 8001dd8:	63e3      	str	r3, [r4, #60]	@ 0x3c
 8001dda:	2001      	movs	r0, #1
 8001ddc:	e7ea      	b.n	8001db4 <HAL_ADC_Init+0x104>
 8001dde:	2310      	movs	r3, #16
 8001de0:	6ba2      	ldr	r2, [r4, #56]	@ 0x38
 8001de2:	4313      	orrs	r3, r2
 8001de4:	63a3      	str	r3, [r4, #56]	@ 0x38
 8001de6:	e7f8      	b.n	8001dda <HAL_ADC_Init+0x12a>
 8001de8:	fffffefd 	.word	0xfffffefd
 8001dec:	fffe0219 	.word	0xfffe0219
 8001df0:	833fffe7 	.word	0x833fffe7

08001df4 <HAL_ADC_Start_DMA>:
 8001df4:	b5f7      	push	{r0, r1, r2, r4, r5, r6, r7, lr}
 8001df6:	6803      	ldr	r3, [r0, #0]
 8001df8:	0004      	movs	r4, r0
 8001dfa:	689b      	ldr	r3, [r3, #8]
 8001dfc:	000e      	movs	r6, r1
 8001dfe:	2002      	movs	r0, #2
 8001e00:	9201      	str	r2, [sp, #4]
 8001e02:	075b      	lsls	r3, r3, #29
 8001e04:	d430      	bmi.n	8001e68 <HAL_ADC_Start_DMA+0x74>
 8001e06:	0027      	movs	r7, r4
 8001e08:	3734      	adds	r7, #52	@ 0x34
 8001e0a:	783b      	ldrb	r3, [r7, #0]
 8001e0c:	2b01      	cmp	r3, #1
 8001e0e:	d02b      	beq.n	8001e68 <HAL_ADC_Start_DMA+0x74>
 8001e10:	2301      	movs	r3, #1
 8001e12:	703b      	strb	r3, [r7, #0]
 8001e14:	7e63      	ldrb	r3, [r4, #25]
 8001e16:	2b01      	cmp	r3, #1
 8001e18:	d127      	bne.n	8001e6a <HAL_ADC_Start_DMA+0x76>
 8001e1a:	6ba2      	ldr	r2, [r4, #56]	@ 0x38
 8001e1c:	4b16      	ldr	r3, [pc, #88]	@ (8001e78 <HAL_ADC_Start_DMA+0x84>)
 8001e1e:	2500      	movs	r5, #0
 8001e20:	401a      	ands	r2, r3
 8001e22:	2380      	movs	r3, #128	@ 0x80
 8001e24:	005b      	lsls	r3, r3, #1
 8001e26:	4313      	orrs	r3, r2
 8001e28:	63a3      	str	r3, [r4, #56]	@ 0x38
 8001e2a:	63e5      	str	r5, [r4, #60]	@ 0x3c
 8001e2c:	703d      	strb	r5, [r7, #0]
 8001e2e:	6b20      	ldr	r0, [r4, #48]	@ 0x30
 8001e30:	4b12      	ldr	r3, [pc, #72]	@ (8001e7c <HAL_ADC_Start_DMA+0x88>)
 8001e32:	6821      	ldr	r1, [r4, #0]
 8001e34:	6283      	str	r3, [r0, #40]	@ 0x28
 8001e36:	4b12      	ldr	r3, [pc, #72]	@ (8001e80 <HAL_ADC_Start_DMA+0x8c>)
 8001e38:	62c3      	str	r3, [r0, #44]	@ 0x2c
 8001e3a:	4b12      	ldr	r3, [pc, #72]	@ (8001e84 <HAL_ADC_Start_DMA+0x90>)
 8001e3c:	6303      	str	r3, [r0, #48]	@ 0x30
 8001e3e:	231c      	movs	r3, #28
 8001e40:	600b      	str	r3, [r1, #0]
 8001e42:	684a      	ldr	r2, [r1, #4]
 8001e44:	3b0c      	subs	r3, #12
 8001e46:	4313      	orrs	r3, r2
 8001e48:	604b      	str	r3, [r1, #4]
 8001e4a:	2301      	movs	r3, #1
 8001e4c:	68ca      	ldr	r2, [r1, #12]
 8001e4e:	4313      	orrs	r3, r2
 8001e50:	60cb      	str	r3, [r1, #12]
 8001e52:	0032      	movs	r2, r6
 8001e54:	9b01      	ldr	r3, [sp, #4]
 8001e56:	3140      	adds	r1, #64	@ 0x40
 8001e58:	f000 fa58 	bl	800230c <HAL_DMA_Start_IT>
 8001e5c:	2304      	movs	r3, #4
 8001e5e:	0028      	movs	r0, r5
 8001e60:	6822      	ldr	r2, [r4, #0]
 8001e62:	6891      	ldr	r1, [r2, #8]
 8001e64:	430b      	orrs	r3, r1
 8001e66:	6093      	str	r3, [r2, #8]
 8001e68:	bdfe      	pop	{r1, r2, r3, r4, r5, r6, r7, pc}
 8001e6a:	0020      	movs	r0, r4
 8001e6c:	f7ff fed4 	bl	8001c18 <ADC_Enable.constprop.0>
 8001e70:	2800      	cmp	r0, #0
 8001e72:	d0d2      	beq.n	8001e1a <HAL_ADC_Start_DMA+0x26>
 8001e74:	e7f8      	b.n	8001e68 <HAL_ADC_Start_DMA+0x74>
 8001e76:	46c0      	nop			@ (mov r8, r8)
 8001e78:	fffff0fe 	.word	0xfffff0fe
 8001e7c:	08001f05 	.word	0x08001f05
 8001e80:	08001f77 	.word	0x08001f77
 8001e84:	08001f85 	.word	0x08001f85

08001e88 <HAL_ADC_Stop_DMA>:
 8001e88:	b5f8      	push	{r3, r4, r5, r6, r7, lr}
 8001e8a:	0006      	movs	r6, r0
 8001e8c:	3634      	adds	r6, #52	@ 0x34
 8001e8e:	7833      	ldrb	r3, [r6, #0]
 8001e90:	0004      	movs	r4, r0
 8001e92:	2502      	movs	r5, #2
 8001e94:	2b01      	cmp	r3, #1
 8001e96:	d025      	beq.n	8001ee4 <HAL_ADC_Stop_DMA+0x5c>
 8001e98:	2701      	movs	r7, #1
 8001e9a:	7037      	strb	r7, [r6, #0]
 8001e9c:	f7ff fe5a 	bl	8001b54 <ADC_ConversionStop>
 8001ea0:	1e05      	subs	r5, r0, #0
 8001ea2:	d11d      	bne.n	8001ee0 <HAL_ADC_Stop_DMA+0x58>
 8001ea4:	6822      	ldr	r2, [r4, #0]
 8001ea6:	6b20      	ldr	r0, [r4, #48]	@ 0x30
 8001ea8:	68d3      	ldr	r3, [r2, #12]
 8001eaa:	43bb      	bics	r3, r7
 8001eac:	60d3      	str	r3, [r2, #12]
 8001eae:	1c83      	adds	r3, r0, #2
 8001eb0:	7fdb      	ldrb	r3, [r3, #31]
 8001eb2:	2b02      	cmp	r3, #2
 8001eb4:	d108      	bne.n	8001ec8 <HAL_ADC_Stop_DMA+0x40>
 8001eb6:	f000 fa65 	bl	8002384 <HAL_DMA_Abort>
 8001eba:	2800      	cmp	r0, #0
 8001ebc:	d004      	beq.n	8001ec8 <HAL_ADC_Stop_DMA+0x40>
 8001ebe:	2340      	movs	r3, #64	@ 0x40
 8001ec0:	0005      	movs	r5, r0
 8001ec2:	6ba2      	ldr	r2, [r4, #56]	@ 0x38
 8001ec4:	4313      	orrs	r3, r2
 8001ec6:	63a3      	str	r3, [r4, #56]	@ 0x38
 8001ec8:	2110      	movs	r1, #16
 8001eca:	6822      	ldr	r2, [r4, #0]
 8001ecc:	0020      	movs	r0, r4
 8001ece:	6853      	ldr	r3, [r2, #4]
 8001ed0:	438b      	bics	r3, r1
 8001ed2:	6053      	str	r3, [r2, #4]
 8001ed4:	2d00      	cmp	r5, #0
 8001ed6:	d107      	bne.n	8001ee8 <HAL_ADC_Stop_DMA+0x60>
 8001ed8:	f7ff fe65 	bl	8001ba6 <ADC_Disable>
 8001edc:	1e05      	subs	r5, r0, #0
 8001ede:	d006      	beq.n	8001eee <HAL_ADC_Stop_DMA+0x66>
 8001ee0:	2300      	movs	r3, #0
 8001ee2:	7033      	strb	r3, [r6, #0]
 8001ee4:	0028      	movs	r0, r5
 8001ee6:	bdf8      	pop	{r3, r4, r5, r6, r7, pc}
 8001ee8:	f7ff fe5d 	bl	8001ba6 <ADC_Disable>
 8001eec:	e7f8      	b.n	8001ee0 <HAL_ADC_Stop_DMA+0x58>
 8001eee:	6ba2      	ldr	r2, [r4, #56]	@ 0x38
 8001ef0:	4b03      	ldr	r3, [pc, #12]	@ (8001f00 <HAL_ADC_Stop_DMA+0x78>)
 8001ef2:	401a      	ands	r2, r3
 8001ef4:	3304      	adds	r3, #4
 8001ef6:	33ff      	adds	r3, #255	@ 0xff
 8001ef8:	4313      	orrs	r3, r2
 8001efa:	63a3      	str	r3, [r4, #56]	@ 0x38
 8001efc:	e7f0      	b.n	8001ee0 <HAL_ADC_Stop_DMA+0x58>
 8001efe:	46c0      	nop			@ (mov r8, r8)
 8001f00:	fffffefe 	.word	0xfffffefe

08001f04 <ADC_DMAConvCplt>:
 8001f04:	2250      	movs	r2, #80	@ 0x50
 8001f06:	6a43      	ldr	r3, [r0, #36]	@ 0x24
 8001f08:	b510      	push	{r4, lr}
 8001f0a:	6b99      	ldr	r1, [r3, #56]	@ 0x38
 8001f0c:	4211      	tst	r1, r2
 8001f0e:	d12b      	bne.n	8001f68 <ADC_DMAConvCplt+0x64>
 8001f10:	6b99      	ldr	r1, [r3, #56]	@ 0x38
 8001f12:	32b1      	adds	r2, #177	@ 0xb1
 8001f14:	32ff      	adds	r2, #255	@ 0xff
 8001f16:	430a      	orrs	r2, r1
 8001f18:	21c0      	movs	r1, #192	@ 0xc0
 8001f1a:	639a      	str	r2, [r3, #56]	@ 0x38
 8001f1c:	681a      	ldr	r2, [r3, #0]
 8001f1e:	0109      	lsls	r1, r1, #4
 8001f20:	68d0      	ldr	r0, [r2, #12]
 8001f22:	4208      	tst	r0, r1
 8001f24:	d113      	bne.n	8001f4e <ADC_DMAConvCplt+0x4a>
 8001f26:	7e99      	ldrb	r1, [r3, #26]
 8001f28:	2900      	cmp	r1, #0
 8001f2a:	d110      	bne.n	8001f4e <ADC_DMAConvCplt+0x4a>
 8001f2c:	6811      	ldr	r1, [r2, #0]
 8001f2e:	0709      	lsls	r1, r1, #28
 8001f30:	d50d      	bpl.n	8001f4e <ADC_DMAConvCplt+0x4a>
 8001f32:	6891      	ldr	r1, [r2, #8]
 8001f34:	0749      	lsls	r1, r1, #29
 8001f36:	d40e      	bmi.n	8001f56 <ADC_DMAConvCplt+0x52>
 8001f38:	200c      	movs	r0, #12
 8001f3a:	6851      	ldr	r1, [r2, #4]
 8001f3c:	4381      	bics	r1, r0
 8001f3e:	6051      	str	r1, [r2, #4]
 8001f40:	6b99      	ldr	r1, [r3, #56]	@ 0x38
 8001f42:	4a0b      	ldr	r2, [pc, #44]	@ (8001f70 <ADC_DMAConvCplt+0x6c>)
 8001f44:	4011      	ands	r1, r2
 8001f46:	3204      	adds	r2, #4
 8001f48:	32ff      	adds	r2, #255	@ 0xff
 8001f4a:	430a      	orrs	r2, r1
 8001f4c:	639a      	str	r2, [r3, #56]	@ 0x38
 8001f4e:	0018      	movs	r0, r3
 8001f50:	f7ff faac 	bl	80014ac <HAL_ADC_ConvCpltCallback>
 8001f54:	bd10      	pop	{r4, pc}
 8001f56:	2220      	movs	r2, #32
 8001f58:	6b99      	ldr	r1, [r3, #56]	@ 0x38
 8001f5a:	430a      	orrs	r2, r1
 8001f5c:	639a      	str	r2, [r3, #56]	@ 0x38
 8001f5e:	2201      	movs	r2, #1
 8001f60:	6bd9      	ldr	r1, [r3, #60]	@ 0x3c
 8001f62:	430a      	orrs	r2, r1
 8001f64:	63da      	str	r2, [r3, #60]	@ 0x3c
 8001f66:	e7f2      	b.n	8001f4e <ADC_DMAConvCplt+0x4a>
 8001f68:	6b1b      	ldr	r3, [r3, #48]	@ 0x30
 8001f6a:	6b1b      	ldr	r3, [r3, #48]	@ 0x30
 8001f6c:	4798      	blx	r3
 8001f6e:	e7f1      	b.n	8001f54 <ADC_DMAConvCplt+0x50>
 8001f70:	fffffefe 	.word	0xfffffefe

08001f74 <HAL_ADC_ConvHalfCpltCallback>:
 8001f74:	4770      	bx	lr

08001f76 <ADC_DMAHalfConvCplt>:
 8001f76:	b510      	push	{r4, lr}
 8001f78:	6a40      	ldr	r0, [r0, #36]	@ 0x24
 8001f7a:	f7ff fffb 	bl	8001f74 <HAL_ADC_ConvHalfCpltCallback>
 8001f7e:	bd10      	pop	{r4, pc}

08001f80 <HAL_ADC_LevelOutOfWindowCallback>:
 8001f80:	4770      	bx	lr

08001f82 <HAL_ADC_ErrorCallback>:
 8001f82:	4770      	bx	lr

08001f84 <ADC_DMAError>:
 8001f84:	2340      	movs	r3, #64	@ 0x40
 8001f86:	6a40      	ldr	r0, [r0, #36]	@ 0x24
 8001f88:	b510      	push	{r4, lr}
 8001f8a:	6b82      	ldr	r2, [r0, #56]	@ 0x38
 8001f8c:	4313      	orrs	r3, r2
 8001f8e:	6383      	str	r3, [r0, #56]	@ 0x38
 8001f90:	2304      	movs	r3, #4
 8001f92:	6bc2      	ldr	r2, [r0, #60]	@ 0x3c
 8001f94:	4313      	orrs	r3, r2
 8001f96:	63c3      	str	r3, [r0, #60]	@ 0x3c
 8001f98:	f7ff fff3 	bl	8001f82 <HAL_ADC_ErrorCallback>
 8001f9c:	bd10      	pop	{r4, pc}
	...

08001fa0 <HAL_ADC_IRQHandler>:
 8001fa0:	2204      	movs	r2, #4
 8001fa2:	6803      	ldr	r3, [r0, #0]
 8001fa4:	b570      	push	{r4, r5, r6, lr}
 8001fa6:	6819      	ldr	r1, [r3, #0]
 8001fa8:	0004      	movs	r4, r0
 8001faa:	4211      	tst	r1, r2
 8001fac:	d002      	beq.n	8001fb4 <HAL_ADC_IRQHandler+0x14>
 8001fae:	6859      	ldr	r1, [r3, #4]
 8001fb0:	4211      	tst	r1, r2
 8001fb2:	d106      	bne.n	8001fc2 <HAL_ADC_IRQHandler+0x22>
 8001fb4:	2208      	movs	r2, #8
 8001fb6:	6819      	ldr	r1, [r3, #0]
 8001fb8:	4211      	tst	r1, r2
 8001fba:	d029      	beq.n	8002010 <HAL_ADC_IRQHandler+0x70>
 8001fbc:	6859      	ldr	r1, [r3, #4]
 8001fbe:	4211      	tst	r1, r2
 8001fc0:	d026      	beq.n	8002010 <HAL_ADC_IRQHandler+0x70>
 8001fc2:	6ba2      	ldr	r2, [r4, #56]	@ 0x38
 8001fc4:	06d2      	lsls	r2, r2, #27
 8001fc6:	d404      	bmi.n	8001fd2 <HAL_ADC_IRQHandler+0x32>
 8001fc8:	2280      	movs	r2, #128	@ 0x80
 8001fca:	6ba1      	ldr	r1, [r4, #56]	@ 0x38
 8001fcc:	0092      	lsls	r2, r2, #2
 8001fce:	430a      	orrs	r2, r1
 8001fd0:	63a2      	str	r2, [r4, #56]	@ 0x38
 8001fd2:	22c0      	movs	r2, #192	@ 0xc0
 8001fd4:	68d9      	ldr	r1, [r3, #12]
 8001fd6:	0112      	lsls	r2, r2, #4
 8001fd8:	4211      	tst	r1, r2
 8001fda:	d113      	bne.n	8002004 <HAL_ADC_IRQHandler+0x64>
 8001fdc:	7ea2      	ldrb	r2, [r4, #26]
 8001fde:	2a00      	cmp	r2, #0
 8001fe0:	d110      	bne.n	8002004 <HAL_ADC_IRQHandler+0x64>
 8001fe2:	681a      	ldr	r2, [r3, #0]
 8001fe4:	0712      	lsls	r2, r2, #28
 8001fe6:	d50d      	bpl.n	8002004 <HAL_ADC_IRQHandler+0x64>
 8001fe8:	689a      	ldr	r2, [r3, #8]
 8001fea:	0752      	lsls	r2, r2, #29
 8001fec:	d43d      	bmi.n	800206a <HAL_ADC_IRQHandler+0xca>
 8001fee:	210c      	movs	r1, #12
 8001ff0:	685a      	ldr	r2, [r3, #4]
 8001ff2:	438a      	bics	r2, r1
 8001ff4:	605a      	str	r2, [r3, #4]
 8001ff6:	6ba2      	ldr	r2, [r4, #56]	@ 0x38
 8001ff8:	4b20      	ldr	r3, [pc, #128]	@ (800207c <HAL_ADC_IRQHandler+0xdc>)
 8001ffa:	401a      	ands	r2, r3
 8001ffc:	3304      	adds	r3, #4
 8001ffe:	33ff      	adds	r3, #255	@ 0xff
 8002000:	4313      	orrs	r3, r2
 8002002:	63a3      	str	r3, [r4, #56]	@ 0x38
 8002004:	0020      	movs	r0, r4
 8002006:	f7ff fa51 	bl	80014ac <HAL_ADC_ConvCpltCallback>
 800200a:	220c      	movs	r2, #12
 800200c:	6823      	ldr	r3, [r4, #0]
 800200e:	601a      	str	r2, [r3, #0]
 8002010:	2580      	movs	r5, #128	@ 0x80
 8002012:	6823      	ldr	r3, [r4, #0]
 8002014:	681a      	ldr	r2, [r3, #0]
 8002016:	422a      	tst	r2, r5
 8002018:	d00c      	beq.n	8002034 <HAL_ADC_IRQHandler+0x94>
 800201a:	685b      	ldr	r3, [r3, #4]
 800201c:	422b      	tst	r3, r5
 800201e:	d009      	beq.n	8002034 <HAL_ADC_IRQHandler+0x94>
 8002020:	2380      	movs	r3, #128	@ 0x80
 8002022:	6ba2      	ldr	r2, [r4, #56]	@ 0x38
 8002024:	025b      	lsls	r3, r3, #9
 8002026:	4313      	orrs	r3, r2
 8002028:	63a3      	str	r3, [r4, #56]	@ 0x38
 800202a:	0020      	movs	r0, r4
 800202c:	f7ff ffa8 	bl	8001f80 <HAL_ADC_LevelOutOfWindowCallback>
 8002030:	6823      	ldr	r3, [r4, #0]
 8002032:	601d      	str	r5, [r3, #0]
 8002034:	2210      	movs	r2, #16
 8002036:	6823      	ldr	r3, [r4, #0]
 8002038:	6819      	ldr	r1, [r3, #0]
 800203a:	4211      	tst	r1, r2
 800203c:	d014      	beq.n	8002068 <HAL_ADC_IRQHandler+0xc8>
 800203e:	6859      	ldr	r1, [r3, #4]
 8002040:	4211      	tst	r1, r2
 8002042:	d011      	beq.n	8002068 <HAL_ADC_IRQHandler+0xc8>
 8002044:	6aa2      	ldr	r2, [r4, #40]	@ 0x28
 8002046:	2a01      	cmp	r2, #1
 8002048:	d002      	beq.n	8002050 <HAL_ADC_IRQHandler+0xb0>
 800204a:	68da      	ldr	r2, [r3, #12]
 800204c:	07d2      	lsls	r2, r2, #31
 800204e:	d508      	bpl.n	8002062 <HAL_ADC_IRQHandler+0xc2>
 8002050:	2202      	movs	r2, #2
 8002052:	6be1      	ldr	r1, [r4, #60]	@ 0x3c
 8002054:	0020      	movs	r0, r4
 8002056:	430a      	orrs	r2, r1
 8002058:	63e2      	str	r2, [r4, #60]	@ 0x3c
 800205a:	2210      	movs	r2, #16
 800205c:	601a      	str	r2, [r3, #0]
 800205e:	f7ff ff90 	bl	8001f82 <HAL_ADC_ErrorCallback>
 8002062:	2210      	movs	r2, #16
 8002064:	6823      	ldr	r3, [r4, #0]
 8002066:	601a      	str	r2, [r3, #0]
 8002068:	bd70      	pop	{r4, r5, r6, pc}
 800206a:	2320      	movs	r3, #32
 800206c:	6ba2      	ldr	r2, [r4, #56]	@ 0x38
 800206e:	4313      	orrs	r3, r2
 8002070:	63a3      	str	r3, [r4, #56]	@ 0x38
 8002072:	2301      	movs	r3, #1
 8002074:	6be2      	ldr	r2, [r4, #60]	@ 0x3c
 8002076:	4313      	orrs	r3, r2
 8002078:	63e3      	str	r3, [r4, #60]	@ 0x3c
 800207a:	e7c3      	b.n	8002004 <HAL_ADC_IRQHandler+0x64>
 800207c:	fffffefe 	.word	0xfffffefe

08002080 <HAL_ADC_ConfigChannel>:
 8002080:	b5f7      	push	{r0, r1, r2, r4, r5, r6, r7, lr}
 8002082:	2200      	movs	r2, #0
 8002084:	0004      	movs	r4, r0
 8002086:	9201      	str	r2, [sp, #4]
 8002088:	3434      	adds	r4, #52	@ 0x34
 800208a:	7822      	ldrb	r2, [r4, #0]
 800208c:	0003      	movs	r3, r0
 800208e:	6ac6      	ldr	r6, [r0, #44]	@ 0x2c
 8002090:	2002      	movs	r0, #2
 8002092:	2a01      	cmp	r2, #1
 8002094:	d02a      	beq.n	80020ec <HAL_ADC_ConfigChannel+0x6c>
 8002096:	3801      	subs	r0, #1
 8002098:	7020      	strb	r0, [r4, #0]
 800209a:	681a      	ldr	r2, [r3, #0]
 800209c:	6895      	ldr	r5, [r2, #8]
 800209e:	076d      	lsls	r5, r5, #29
 80020a0:	d44e      	bmi.n	8002140 <HAL_ADC_ConfigChannel+0xc0>
 80020a2:	680d      	ldr	r5, [r1, #0]
 80020a4:	684f      	ldr	r7, [r1, #4]
 80020a6:	002b      	movs	r3, r5
 80020a8:	46bc      	mov	ip, r7
 80020aa:	4f28      	ldr	r7, [pc, #160]	@ (800214c <HAL_ADC_ConfigChannel+0xcc>)
 80020ac:	40a8      	lsls	r0, r5
 80020ae:	3b10      	subs	r3, #16
 80020b0:	45bc      	cmp	ip, r7
 80020b2:	d036      	beq.n	8002122 <HAL_ADC_ConfigChannel+0xa2>
 80020b4:	6a97      	ldr	r7, [r2, #40]	@ 0x28
 80020b6:	4338      	orrs	r0, r7
 80020b8:	6290      	str	r0, [r2, #40]	@ 0x28
 80020ba:	2080      	movs	r0, #128	@ 0x80
 80020bc:	0540      	lsls	r0, r0, #21
 80020be:	4286      	cmp	r6, r0
 80020c0:	d00f      	beq.n	80020e2 <HAL_ADC_ConfigChannel+0x62>
 80020c2:	3e01      	subs	r6, #1
 80020c4:	2e06      	cmp	r6, #6
 80020c6:	d90c      	bls.n	80020e2 <HAL_ADC_ConfigChannel+0x62>
 80020c8:	2007      	movs	r0, #7
 80020ca:	6956      	ldr	r6, [r2, #20]
 80020cc:	6889      	ldr	r1, [r1, #8]
 80020ce:	4006      	ands	r6, r0
 80020d0:	42b1      	cmp	r1, r6
 80020d2:	d006      	beq.n	80020e2 <HAL_ADC_ConfigChannel+0x62>
 80020d4:	6956      	ldr	r6, [r2, #20]
 80020d6:	4001      	ands	r1, r0
 80020d8:	4386      	bics	r6, r0
 80020da:	6156      	str	r6, [r2, #20]
 80020dc:	6956      	ldr	r6, [r2, #20]
 80020de:	4331      	orrs	r1, r6
 80020e0:	6151      	str	r1, [r2, #20]
 80020e2:	2b01      	cmp	r3, #1
 80020e4:	d903      	bls.n	80020ee <HAL_ADC_ConfigChannel+0x6e>
 80020e6:	2000      	movs	r0, #0
 80020e8:	2300      	movs	r3, #0
 80020ea:	7023      	strb	r3, [r4, #0]
 80020ec:	bdfe      	pop	{r1, r2, r3, r4, r5, r6, r7, pc}
 80020ee:	4a18      	ldr	r2, [pc, #96]	@ (8002150 <HAL_ADC_ConfigChannel+0xd0>)
 80020f0:	2180      	movs	r1, #128	@ 0x80
 80020f2:	6813      	ldr	r3, [r2, #0]
 80020f4:	2d10      	cmp	r5, #16
 80020f6:	d012      	beq.n	800211e <HAL_ADC_ConfigChannel+0x9e>
 80020f8:	03c9      	lsls	r1, r1, #15
 80020fa:	430b      	orrs	r3, r1
 80020fc:	6013      	str	r3, [r2, #0]
 80020fe:	2d10      	cmp	r5, #16
 8002100:	d1f1      	bne.n	80020e6 <HAL_ADC_ConfigChannel+0x66>
 8002102:	4b14      	ldr	r3, [pc, #80]	@ (8002154 <HAL_ADC_ConfigChannel+0xd4>)
 8002104:	4914      	ldr	r1, [pc, #80]	@ (8002158 <HAL_ADC_ConfigChannel+0xd8>)
 8002106:	6818      	ldr	r0, [r3, #0]
 8002108:	f7fe f808 	bl	800011c <__udivsi3>
 800210c:	230a      	movs	r3, #10
 800210e:	4343      	muls	r3, r0
 8002110:	9301      	str	r3, [sp, #4]
 8002112:	9b01      	ldr	r3, [sp, #4]
 8002114:	2b00      	cmp	r3, #0
 8002116:	d0e6      	beq.n	80020e6 <HAL_ADC_ConfigChannel+0x66>
 8002118:	9b01      	ldr	r3, [sp, #4]
 800211a:	3b01      	subs	r3, #1
 800211c:	e7f8      	b.n	8002110 <HAL_ADC_ConfigChannel+0x90>
 800211e:	0409      	lsls	r1, r1, #16
 8002120:	e7eb      	b.n	80020fa <HAL_ADC_ConfigChannel+0x7a>
 8002122:	6a91      	ldr	r1, [r2, #40]	@ 0x28
 8002124:	4381      	bics	r1, r0
 8002126:	6291      	str	r1, [r2, #40]	@ 0x28
 8002128:	2b01      	cmp	r3, #1
 800212a:	d8dc      	bhi.n	80020e6 <HAL_ADC_ConfigChannel+0x66>
 800212c:	1e58      	subs	r0, r3, #1
 800212e:	4183      	sbcs	r3, r0
 8002130:	4a07      	ldr	r2, [pc, #28]	@ (8002150 <HAL_ADC_ConfigChannel+0xd0>)
 8002132:	480a      	ldr	r0, [pc, #40]	@ (800215c <HAL_ADC_ConfigChannel+0xdc>)
 8002134:	6811      	ldr	r1, [r2, #0]
 8002136:	059b      	lsls	r3, r3, #22
 8002138:	181b      	adds	r3, r3, r0
 800213a:	400b      	ands	r3, r1
 800213c:	6013      	str	r3, [r2, #0]
 800213e:	e7d2      	b.n	80020e6 <HAL_ADC_ConfigChannel+0x66>
 8002140:	2220      	movs	r2, #32
 8002142:	6b99      	ldr	r1, [r3, #56]	@ 0x38
 8002144:	430a      	orrs	r2, r1
 8002146:	639a      	str	r2, [r3, #56]	@ 0x38
 8002148:	e7ce      	b.n	80020e8 <HAL_ADC_ConfigChannel+0x68>
 800214a:	46c0      	nop			@ (mov r8, r8)
 800214c:	00001001 	.word	0x00001001
 8002150:	40012708 	.word	0x40012708
 8002154:	20000000 	.word	0x20000000
 8002158:	000f4240 	.word	0x000f4240
 800215c:	ff7fffff 	.word	0xff7fffff

08002160 <HAL_ADCEx_Calibration_Start>:
 8002160:	b5f8      	push	{r3, r4, r5, r6, r7, lr}
 8002162:	0006      	movs	r6, r0
 8002164:	3634      	adds	r6, #52	@ 0x34
 8002166:	7833      	ldrb	r3, [r6, #0]
 8002168:	0004      	movs	r4, r0
 800216a:	2002      	movs	r0, #2
 800216c:	2b01      	cmp	r3, #1
 800216e:	d041      	beq.n	80021f4 <HAL_ADCEx_Calibration_Start+0x94>
 8002170:	2301      	movs	r3, #1
 8002172:	2103      	movs	r1, #3
 8002174:	7033      	strb	r3, [r6, #0]
 8002176:	6823      	ldr	r3, [r4, #0]
 8002178:	689a      	ldr	r2, [r3, #8]
 800217a:	400a      	ands	r2, r1
 800217c:	2a01      	cmp	r2, #1
 800217e:	d105      	bne.n	800218c <HAL_ADCEx_Calibration_Start+0x2c>
 8002180:	6819      	ldr	r1, [r3, #0]
 8002182:	4211      	tst	r1, r2
 8002184:	d137      	bne.n	80021f6 <HAL_ADCEx_Calibration_Start+0x96>
 8002186:	68da      	ldr	r2, [r3, #12]
 8002188:	0412      	lsls	r2, r2, #16
 800218a:	d434      	bmi.n	80021f6 <HAL_ADCEx_Calibration_Start+0x96>
 800218c:	6ba1      	ldr	r1, [r4, #56]	@ 0x38
 800218e:	4a1d      	ldr	r2, [pc, #116]	@ (8002204 <HAL_ADCEx_Calibration_Start+0xa4>)
 8002190:	4011      	ands	r1, r2
 8002192:	3206      	adds	r2, #6
 8002194:	32ff      	adds	r2, #255	@ 0xff
 8002196:	430a      	orrs	r2, r1
 8002198:	2103      	movs	r1, #3
 800219a:	63a2      	str	r2, [r4, #56]	@ 0x38
 800219c:	68dd      	ldr	r5, [r3, #12]
 800219e:	68da      	ldr	r2, [r3, #12]
 80021a0:	438a      	bics	r2, r1
 80021a2:	60da      	str	r2, [r3, #12]
 80021a4:	2280      	movs	r2, #128	@ 0x80
 80021a6:	6899      	ldr	r1, [r3, #8]
 80021a8:	0612      	lsls	r2, r2, #24
 80021aa:	430a      	orrs	r2, r1
 80021ac:	609a      	str	r2, [r3, #8]
 80021ae:	f7ff fccb 	bl	8001b48 <HAL_GetTick>
 80021b2:	0007      	movs	r7, r0
 80021b4:	6823      	ldr	r3, [r4, #0]
 80021b6:	689a      	ldr	r2, [r3, #8]
 80021b8:	2a00      	cmp	r2, #0
 80021ba:	db0d      	blt.n	80021d8 <HAL_ADCEx_Calibration_Start+0x78>
 80021bc:	2103      	movs	r1, #3
 80021be:	68da      	ldr	r2, [r3, #12]
 80021c0:	400d      	ands	r5, r1
 80021c2:	4315      	orrs	r5, r2
 80021c4:	60dd      	str	r5, [r3, #12]
 80021c6:	2301      	movs	r3, #1
 80021c8:	2000      	movs	r0, #0
 80021ca:	6ba2      	ldr	r2, [r4, #56]	@ 0x38
 80021cc:	438a      	bics	r2, r1
 80021ce:	4313      	orrs	r3, r2
 80021d0:	63a3      	str	r3, [r4, #56]	@ 0x38
 80021d2:	2300      	movs	r3, #0
 80021d4:	7033      	strb	r3, [r6, #0]
 80021d6:	e00d      	b.n	80021f4 <HAL_ADCEx_Calibration_Start+0x94>
 80021d8:	f7ff fcb6 	bl	8001b48 <HAL_GetTick>
 80021dc:	1bc0      	subs	r0, r0, r7
 80021de:	2802      	cmp	r0, #2
 80021e0:	d9e8      	bls.n	80021b4 <HAL_ADCEx_Calibration_Start+0x54>
 80021e2:	2312      	movs	r3, #18
 80021e4:	6ba2      	ldr	r2, [r4, #56]	@ 0x38
 80021e6:	2001      	movs	r0, #1
 80021e8:	439a      	bics	r2, r3
 80021ea:	3b02      	subs	r3, #2
 80021ec:	4313      	orrs	r3, r2
 80021ee:	63a3      	str	r3, [r4, #56]	@ 0x38
 80021f0:	2300      	movs	r3, #0
 80021f2:	7033      	strb	r3, [r6, #0]
 80021f4:	bdf8      	pop	{r3, r4, r5, r6, r7, pc}
 80021f6:	2320      	movs	r3, #32
 80021f8:	6ba2      	ldr	r2, [r4, #56]	@ 0x38
 80021fa:	2001      	movs	r0, #1
 80021fc:	4313      	orrs	r3, r2
 80021fe:	63a3      	str	r3, [r4, #56]	@ 0x38
 8002200:	e7e7      	b.n	80021d2 <HAL_ADCEx_Calibration_Start+0x72>
 8002202:	46c0      	nop			@ (mov r8, r8)
 8002204:	fffffefd 	.word	0xfffffefd

08002208 <HAL_NVIC_SetPriority>:
 8002208:	b510      	push	{r4, lr}
 800220a:	24ff      	movs	r4, #255	@ 0xff
 800220c:	2203      	movs	r2, #3
 800220e:	000b      	movs	r3, r1
 8002210:	0021      	movs	r1, r4
 8002212:	4002      	ands	r2, r0
 8002214:	00d2      	lsls	r2, r2, #3
 8002216:	4091      	lsls	r1, r2
 8002218:	019b      	lsls	r3, r3, #6
 800221a:	4023      	ands	r3, r4
 800221c:	43c9      	mvns	r1, r1
 800221e:	4093      	lsls	r3, r2
 8002220:	2800      	cmp	r0, #0
 8002222:	db0a      	blt.n	800223a <HAL_NVIC_SetPriority+0x32>
 8002224:	24c0      	movs	r4, #192	@ 0xc0
 8002226:	4a0b      	ldr	r2, [pc, #44]	@ (8002254 <HAL_NVIC_SetPriority+0x4c>)
 8002228:	0880      	lsrs	r0, r0, #2
 800222a:	0080      	lsls	r0, r0, #2
 800222c:	1880      	adds	r0, r0, r2
 800222e:	00a4      	lsls	r4, r4, #2
 8002230:	5902      	ldr	r2, [r0, r4]
 8002232:	400a      	ands	r2, r1
 8002234:	4313      	orrs	r3, r2
 8002236:	5103      	str	r3, [r0, r4]
 8002238:	bd10      	pop	{r4, pc}
 800223a:	220f      	movs	r2, #15
 800223c:	4010      	ands	r0, r2
 800223e:	3808      	subs	r0, #8
 8002240:	4a05      	ldr	r2, [pc, #20]	@ (8002258 <HAL_NVIC_SetPriority+0x50>)
 8002242:	0880      	lsrs	r0, r0, #2
 8002244:	0080      	lsls	r0, r0, #2
 8002246:	1880      	adds	r0, r0, r2
 8002248:	69c2      	ldr	r2, [r0, #28]
 800224a:	4011      	ands	r1, r2
 800224c:	4319      	orrs	r1, r3
 800224e:	61c1      	str	r1, [r0, #28]
 8002250:	e7f2      	b.n	8002238 <HAL_NVIC_SetPriority+0x30>
 8002252:	46c0      	nop			@ (mov r8, r8)
 8002254:	e000e100 	.word	0xe000e100
 8002258:	e000ed00 	.word	0xe000ed00

0800225c <HAL_NVIC_EnableIRQ>:
 800225c:	2800      	cmp	r0, #0
 800225e:	db05      	blt.n	800226c <HAL_NVIC_EnableIRQ+0x10>
 8002260:	231f      	movs	r3, #31
 8002262:	4018      	ands	r0, r3
 8002264:	3b1e      	subs	r3, #30
 8002266:	4083      	lsls	r3, r0
 8002268:	4a01      	ldr	r2, [pc, #4]	@ (8002270 <HAL_NVIC_EnableIRQ+0x14>)
 800226a:	6013      	str	r3, [r2, #0]
 800226c:	4770      	bx	lr
 800226e:	46c0      	nop			@ (mov r8, r8)
 8002270:	e000e100 	.word	0xe000e100

08002274 <HAL_SYSTICK_Config>:
 8002274:	2280      	movs	r2, #128	@ 0x80
 8002276:	1e43      	subs	r3, r0, #1
 8002278:	0452      	lsls	r2, r2, #17
 800227a:	2001      	movs	r0, #1
 800227c:	4293      	cmp	r3, r2
 800227e:	d20d      	bcs.n	800229c <HAL_SYSTICK_Config+0x28>
 8002280:	21c0      	movs	r1, #192	@ 0xc0
 8002282:	4a07      	ldr	r2, [pc, #28]	@ (80022a0 <HAL_SYSTICK_Config+0x2c>)
 8002284:	4807      	ldr	r0, [pc, #28]	@ (80022a4 <HAL_SYSTICK_Config+0x30>)
 8002286:	6053      	str	r3, [r2, #4]
 8002288:	6a03      	ldr	r3, [r0, #32]
 800228a:	0609      	lsls	r1, r1, #24
 800228c:	021b      	lsls	r3, r3, #8
 800228e:	0a1b      	lsrs	r3, r3, #8
 8002290:	430b      	orrs	r3, r1
 8002292:	6203      	str	r3, [r0, #32]
 8002294:	2000      	movs	r0, #0
 8002296:	2307      	movs	r3, #7
 8002298:	6090      	str	r0, [r2, #8]
 800229a:	6013      	str	r3, [r2, #0]
 800229c:	4770      	bx	lr
 800229e:	46c0      	nop			@ (mov r8, r8)
 80022a0:	e000e010 	.word	0xe000e010
 80022a4:	e000ed00 	.word	0xe000ed00

080022a8 <HAL_DMA_Init>:
 80022a8:	b570      	push	{r4, r5, r6, lr}
 80022aa:	0004      	movs	r4, r0
 80022ac:	2001      	movs	r0, #1
 80022ae:	2c00      	cmp	r4, #0
 80022b0:	d024      	beq.n	80022fc <HAL_DMA_Init+0x54>
 80022b2:	2302      	movs	r3, #2
 80022b4:	1ca5      	adds	r5, r4, #2
 80022b6:	77eb      	strb	r3, [r5, #31]
 80022b8:	6820      	ldr	r0, [r4, #0]
 80022ba:	4b11      	ldr	r3, [pc, #68]	@ (8002300 <HAL_DMA_Init+0x58>)
 80022bc:	6802      	ldr	r2, [r0, #0]
 80022be:	68a1      	ldr	r1, [r4, #8]
 80022c0:	401a      	ands	r2, r3
 80022c2:	6863      	ldr	r3, [r4, #4]
 80022c4:	430b      	orrs	r3, r1
 80022c6:	68e1      	ldr	r1, [r4, #12]
 80022c8:	430b      	orrs	r3, r1
 80022ca:	6921      	ldr	r1, [r4, #16]
 80022cc:	430b      	orrs	r3, r1
 80022ce:	6961      	ldr	r1, [r4, #20]
 80022d0:	430b      	orrs	r3, r1
 80022d2:	69a1      	ldr	r1, [r4, #24]
 80022d4:	430b      	orrs	r3, r1
 80022d6:	69e1      	ldr	r1, [r4, #28]
 80022d8:	430b      	orrs	r3, r1
 80022da:	4313      	orrs	r3, r2
 80022dc:	6003      	str	r3, [r0, #0]
 80022de:	4b09      	ldr	r3, [pc, #36]	@ (8002304 <HAL_DMA_Init+0x5c>)
 80022e0:	2114      	movs	r1, #20
 80022e2:	18c0      	adds	r0, r0, r3
 80022e4:	f7fd ff1a 	bl	800011c <__udivsi3>
 80022e8:	4b07      	ldr	r3, [pc, #28]	@ (8002308 <HAL_DMA_Init+0x60>)
 80022ea:	0080      	lsls	r0, r0, #2
 80022ec:	6420      	str	r0, [r4, #64]	@ 0x40
 80022ee:	63e3      	str	r3, [r4, #60]	@ 0x3c
 80022f0:	2000      	movs	r0, #0
 80022f2:	2301      	movs	r3, #1
 80022f4:	63a0      	str	r0, [r4, #56]	@ 0x38
 80022f6:	18e4      	adds	r4, r4, r3
 80022f8:	77eb      	strb	r3, [r5, #31]
 80022fa:	77e0      	strb	r0, [r4, #31]
 80022fc:	bd70      	pop	{r4, r5, r6, pc}
 80022fe:	46c0      	nop			@ (mov r8, r8)
 8002300:	ffffc00f 	.word	0xffffc00f
 8002304:	bffdfff8 	.word	0xbffdfff8
 8002308:	40020000 	.word	0x40020000

0800230c <HAL_DMA_Start_IT>:
 800230c:	b5f7      	push	{r0, r1, r2, r4, r5, r6, r7, lr}
 800230e:	1c44      	adds	r4, r0, #1
 8002310:	9301      	str	r3, [sp, #4]
 8002312:	7fe5      	ldrb	r5, [r4, #31]
 8002314:	2d01      	cmp	r5, #1
 8002316:	d033      	beq.n	8002380 <HAL_DMA_Start_IT+0x74>
 8002318:	2501      	movs	r5, #1
 800231a:	1c87      	adds	r7, r0, #2
 800231c:	77e5      	strb	r5, [r4, #31]
 800231e:	7ffd      	ldrb	r5, [r7, #31]
 8002320:	2600      	movs	r6, #0
 8002322:	46ac      	mov	ip, r5
 8002324:	4663      	mov	r3, ip
 8002326:	b2ed      	uxtb	r5, r5
 8002328:	2b01      	cmp	r3, #1
 800232a:	d128      	bne.n	800237e <HAL_DMA_Start_IT+0x72>
 800232c:	2402      	movs	r4, #2
 800232e:	77fc      	strb	r4, [r7, #31]
 8002330:	6804      	ldr	r4, [r0, #0]
 8002332:	6386      	str	r6, [r0, #56]	@ 0x38
 8002334:	6826      	ldr	r6, [r4, #0]
 8002336:	6c07      	ldr	r7, [r0, #64]	@ 0x40
 8002338:	43ae      	bics	r6, r5
 800233a:	40bd      	lsls	r5, r7
 800233c:	6026      	str	r6, [r4, #0]
 800233e:	9b01      	ldr	r3, [sp, #4]
 8002340:	6bc6      	ldr	r6, [r0, #60]	@ 0x3c
 8002342:	6075      	str	r5, [r6, #4]
 8002344:	6063      	str	r3, [r4, #4]
 8002346:	6843      	ldr	r3, [r0, #4]
 8002348:	2b10      	cmp	r3, #16
 800234a:	d10e      	bne.n	800236a <HAL_DMA_Start_IT+0x5e>
 800234c:	60a2      	str	r2, [r4, #8]
 800234e:	60e1      	str	r1, [r4, #12]
 8002350:	6ac3      	ldr	r3, [r0, #44]	@ 0x2c
 8002352:	6822      	ldr	r2, [r4, #0]
 8002354:	2b00      	cmp	r3, #0
 8002356:	d00b      	beq.n	8002370 <HAL_DMA_Start_IT+0x64>
 8002358:	230e      	movs	r3, #14
 800235a:	4313      	orrs	r3, r2
 800235c:	6023      	str	r3, [r4, #0]
 800235e:	2301      	movs	r3, #1
 8002360:	2000      	movs	r0, #0
 8002362:	6822      	ldr	r2, [r4, #0]
 8002364:	4313      	orrs	r3, r2
 8002366:	6023      	str	r3, [r4, #0]
 8002368:	bdfe      	pop	{r1, r2, r3, r4, r5, r6, r7, pc}
 800236a:	60a1      	str	r1, [r4, #8]
 800236c:	60e2      	str	r2, [r4, #12]
 800236e:	e7ef      	b.n	8002350 <HAL_DMA_Start_IT+0x44>
 8002370:	230a      	movs	r3, #10
 8002372:	4313      	orrs	r3, r2
 8002374:	2204      	movs	r2, #4
 8002376:	6023      	str	r3, [r4, #0]
 8002378:	6823      	ldr	r3, [r4, #0]
 800237a:	4393      	bics	r3, r2
 800237c:	e7ee      	b.n	800235c <HAL_DMA_Start_IT+0x50>
 800237e:	77e6      	strb	r6, [r4, #31]
 8002380:	2002      	movs	r0, #2
 8002382:	e7f1      	b.n	8002368 <HAL_DMA_Start_IT+0x5c>

08002384 <HAL_DMA_Abort>:
 8002384:	b530      	push	{r4, r5, lr}
 8002386:	1c84      	adds	r4, r0, #2
 8002388:	7fe2      	ldrb	r2, [r4, #31]
 800238a:	0003      	movs	r3, r0
 800238c:	2a02      	cmp	r2, #2
 800238e:	d006      	beq.n	800239e <HAL_DMA_Abort+0x1a>
 8002390:	2204      	movs	r2, #4
 8002392:	6382      	str	r2, [r0, #56]	@ 0x38
 8002394:	2001      	movs	r0, #1
 8002396:	2200      	movs	r2, #0
 8002398:	3301      	adds	r3, #1
 800239a:	77da      	strb	r2, [r3, #31]
 800239c:	bd30      	pop	{r4, r5, pc}
 800239e:	6802      	ldr	r2, [r0, #0]
 80023a0:	200e      	movs	r0, #14
 80023a2:	6811      	ldr	r1, [r2, #0]
 80023a4:	4381      	bics	r1, r0
 80023a6:	6011      	str	r1, [r2, #0]
 80023a8:	2101      	movs	r1, #1
 80023aa:	000d      	movs	r5, r1
 80023ac:	6810      	ldr	r0, [r2, #0]
 80023ae:	4388      	bics	r0, r1
 80023b0:	6010      	str	r0, [r2, #0]
 80023b2:	6c18      	ldr	r0, [r3, #64]	@ 0x40
 80023b4:	6bda      	ldr	r2, [r3, #60]	@ 0x3c
 80023b6:	4085      	lsls	r5, r0
 80023b8:	2000      	movs	r0, #0
 80023ba:	6055      	str	r5, [r2, #4]
 80023bc:	77e1      	strb	r1, [r4, #31]
 80023be:	e7ea      	b.n	8002396 <HAL_DMA_Abort+0x12>

080023c0 <HAL_DMA_Abort_IT>:
 80023c0:	b570      	push	{r4, r5, r6, lr}
 80023c2:	1c84      	adds	r4, r0, #2
 80023c4:	7fe3      	ldrb	r3, [r4, #31]
 80023c6:	2b02      	cmp	r3, #2
 80023c8:	d003      	beq.n	80023d2 <HAL_DMA_Abort_IT+0x12>
 80023ca:	2304      	movs	r3, #4
 80023cc:	6383      	str	r3, [r0, #56]	@ 0x38
 80023ce:	2001      	movs	r0, #1
 80023d0:	bd70      	pop	{r4, r5, r6, pc}
 80023d2:	210e      	movs	r1, #14
 80023d4:	6803      	ldr	r3, [r0, #0]
 80023d6:	681a      	ldr	r2, [r3, #0]
 80023d8:	438a      	bics	r2, r1
 80023da:	601a      	str	r2, [r3, #0]
 80023dc:	2201      	movs	r2, #1
 80023de:	0015      	movs	r5, r2
 80023e0:	6819      	ldr	r1, [r3, #0]
 80023e2:	4391      	bics	r1, r2
 80023e4:	6019      	str	r1, [r3, #0]
 80023e6:	6c01      	ldr	r1, [r0, #64]	@ 0x40
 80023e8:	6bc3      	ldr	r3, [r0, #60]	@ 0x3c
 80023ea:	408d      	lsls	r5, r1
 80023ec:	605d      	str	r5, [r3, #4]
 80023ee:	77e2      	strb	r2, [r4, #31]
 80023f0:	1883      	adds	r3, r0, r2
 80023f2:	2200      	movs	r2, #0
 80023f4:	77da      	strb	r2, [r3, #31]
 80023f6:	6b43      	ldr	r3, [r0, #52]	@ 0x34
 80023f8:	4293      	cmp	r3, r2
 80023fa:	d000      	beq.n	80023fe <HAL_DMA_Abort_IT+0x3e>
 80023fc:	4798      	blx	r3
 80023fe:	2000      	movs	r0, #0
 8002400:	e7e6      	b.n	80023d0 <HAL_DMA_Abort_IT+0x10>

08002402 <HAL_DMA_IRQHandler>:
 8002402:	b5f8      	push	{r3, r4, r5, r6, r7, lr}
 8002404:	2704      	movs	r7, #4
 8002406:	003e      	movs	r6, r7
 8002408:	6c01      	ldr	r1, [r0, #64]	@ 0x40
 800240a:	6bc2      	ldr	r2, [r0, #60]	@ 0x3c
 800240c:	408e      	lsls	r6, r1
 800240e:	6815      	ldr	r5, [r2, #0]
 8002410:	6803      	ldr	r3, [r0, #0]
 8002412:	681c      	ldr	r4, [r3, #0]
 8002414:	4235      	tst	r5, r6
 8002416:	d00d      	beq.n	8002434 <HAL_DMA_IRQHandler+0x32>
 8002418:	423c      	tst	r4, r7
 800241a:	d00b      	beq.n	8002434 <HAL_DMA_IRQHandler+0x32>
 800241c:	6819      	ldr	r1, [r3, #0]
 800241e:	0689      	lsls	r1, r1, #26
 8002420:	d402      	bmi.n	8002428 <HAL_DMA_IRQHandler+0x26>
 8002422:	6819      	ldr	r1, [r3, #0]
 8002424:	43b9      	bics	r1, r7
 8002426:	6019      	str	r1, [r3, #0]
 8002428:	6ac3      	ldr	r3, [r0, #44]	@ 0x2c
 800242a:	6056      	str	r6, [r2, #4]
 800242c:	2b00      	cmp	r3, #0
 800242e:	d019      	beq.n	8002464 <HAL_DMA_IRQHandler+0x62>
 8002430:	4798      	blx	r3
 8002432:	e017      	b.n	8002464 <HAL_DMA_IRQHandler+0x62>
 8002434:	2702      	movs	r7, #2
 8002436:	003e      	movs	r6, r7
 8002438:	408e      	lsls	r6, r1
 800243a:	4235      	tst	r5, r6
 800243c:	d013      	beq.n	8002466 <HAL_DMA_IRQHandler+0x64>
 800243e:	423c      	tst	r4, r7
 8002440:	d011      	beq.n	8002466 <HAL_DMA_IRQHandler+0x64>
 8002442:	6819      	ldr	r1, [r3, #0]
 8002444:	0689      	lsls	r1, r1, #26
 8002446:	d406      	bmi.n	8002456 <HAL_DMA_IRQHandler+0x54>
 8002448:	240a      	movs	r4, #10
 800244a:	6819      	ldr	r1, [r3, #0]
 800244c:	43a1      	bics	r1, r4
 800244e:	6019      	str	r1, [r3, #0]
 8002450:	2101      	movs	r1, #1
 8002452:	19c3      	adds	r3, r0, r7
 8002454:	77d9      	strb	r1, [r3, #31]
 8002456:	6056      	str	r6, [r2, #4]
 8002458:	2200      	movs	r2, #0
 800245a:	1c43      	adds	r3, r0, #1
 800245c:	77da      	strb	r2, [r3, #31]
 800245e:	6a83      	ldr	r3, [r0, #40]	@ 0x28
 8002460:	4293      	cmp	r3, r2
 8002462:	d1e5      	bne.n	8002430 <HAL_DMA_IRQHandler+0x2e>
 8002464:	bdf8      	pop	{r3, r4, r5, r6, r7, pc}
 8002466:	2608      	movs	r6, #8
 8002468:	0037      	movs	r7, r6
 800246a:	408f      	lsls	r7, r1
 800246c:	423d      	tst	r5, r7
 800246e:	d0f9      	beq.n	8002464 <HAL_DMA_IRQHandler+0x62>
 8002470:	4234      	tst	r4, r6
 8002472:	d0f7      	beq.n	8002464 <HAL_DMA_IRQHandler+0x62>
 8002474:	250e      	movs	r5, #14
 8002476:	681c      	ldr	r4, [r3, #0]
 8002478:	43ac      	bics	r4, r5
 800247a:	601c      	str	r4, [r3, #0]
 800247c:	2301      	movs	r3, #1
 800247e:	001c      	movs	r4, r3
 8002480:	408c      	lsls	r4, r1
 8002482:	6054      	str	r4, [r2, #4]
 8002484:	1c82      	adds	r2, r0, #2
 8002486:	6383      	str	r3, [r0, #56]	@ 0x38
 8002488:	77d3      	strb	r3, [r2, #31]
 800248a:	2200      	movs	r2, #0
 800248c:	18c3      	adds	r3, r0, r3
 800248e:	77da      	strb	r2, [r3, #31]
 8002490:	6b03      	ldr	r3, [r0, #48]	@ 0x30
 8002492:	e7e5      	b.n	8002460 <HAL_DMA_IRQHandler+0x5e>

08002494 <FLASH_SetErrorCode>:
 8002494:	4a0c      	ldr	r2, [pc, #48]	@ (80024c8 <FLASH_SetErrorCode+0x34>)
 8002496:	2110      	movs	r1, #16
 8002498:	68d0      	ldr	r0, [r2, #12]
 800249a:	b530      	push	{r4, r5, lr}
 800249c:	0003      	movs	r3, r0
 800249e:	400b      	ands	r3, r1
 80024a0:	4208      	tst	r0, r1
 80024a2:	d005      	beq.n	80024b0 <FLASH_SetErrorCode+0x1c>
 80024a4:	2302      	movs	r3, #2
 80024a6:	4809      	ldr	r0, [pc, #36]	@ (80024cc <FLASH_SetErrorCode+0x38>)
 80024a8:	69c4      	ldr	r4, [r0, #28]
 80024aa:	4323      	orrs	r3, r4
 80024ac:	61c3      	str	r3, [r0, #28]
 80024ae:	000b      	movs	r3, r1
 80024b0:	2004      	movs	r0, #4
 80024b2:	68d1      	ldr	r1, [r2, #12]
 80024b4:	4201      	tst	r1, r0
 80024b6:	d005      	beq.n	80024c4 <FLASH_SetErrorCode+0x30>
 80024b8:	2101      	movs	r1, #1
 80024ba:	4c04      	ldr	r4, [pc, #16]	@ (80024cc <FLASH_SetErrorCode+0x38>)
 80024bc:	4303      	orrs	r3, r0
 80024be:	69e5      	ldr	r5, [r4, #28]
 80024c0:	4329      	orrs	r1, r5
 80024c2:	61e1      	str	r1, [r4, #28]
 80024c4:	60d3      	str	r3, [r2, #12]
 80024c6:	bd30      	pop	{r4, r5, pc}
 80024c8:	40022000 	.word	0x40022000
 80024cc:	200004c0 	.word	0x200004c0

080024d0 <HAL_FLASH_Unlock>:
 80024d0:	4b06      	ldr	r3, [pc, #24]	@ (80024ec <HAL_FLASH_Unlock+0x1c>)
 80024d2:	2000      	movs	r0, #0
 80024d4:	691a      	ldr	r2, [r3, #16]
 80024d6:	0612      	lsls	r2, r2, #24
 80024d8:	d506      	bpl.n	80024e8 <HAL_FLASH_Unlock+0x18>
 80024da:	4a05      	ldr	r2, [pc, #20]	@ (80024f0 <HAL_FLASH_Unlock+0x20>)
 80024dc:	605a      	str	r2, [r3, #4]
 80024de:	4a05      	ldr	r2, [pc, #20]	@ (80024f4 <HAL_FLASH_Unlock+0x24>)
 80024e0:	605a      	str	r2, [r3, #4]
 80024e2:	6918      	ldr	r0, [r3, #16]
 80024e4:	0600      	lsls	r0, r0, #24
 80024e6:	0fc0      	lsrs	r0, r0, #31
 80024e8:	4770      	bx	lr
 80024ea:	46c0      	nop			@ (mov r8, r8)
 80024ec:	40022000 	.word	0x40022000
 80024f0:	45670123 	.word	0x45670123
 80024f4:	cdef89ab 	.word	0xcdef89ab

080024f8 <HAL_FLASH_Lock>:
 80024f8:	2380      	movs	r3, #128	@ 0x80
 80024fa:	4a03      	ldr	r2, [pc, #12]	@ (8002508 <HAL_FLASH_Lock+0x10>)
 80024fc:	2000      	movs	r0, #0
 80024fe:	6911      	ldr	r1, [r2, #16]
 8002500:	430b      	orrs	r3, r1
 8002502:	6113      	str	r3, [r2, #16]
 8002504:	4770      	bx	lr
 8002506:	46c0      	nop			@ (mov r8, r8)
 8002508:	40022000 	.word	0x40022000

0800250c <FLASH_WaitForLastOperation>:
 800250c:	b570      	push	{r4, r5, r6, lr}
 800250e:	0004      	movs	r4, r0
 8002510:	f7ff fb1a 	bl	8001b48 <HAL_GetTick>
 8002514:	2601      	movs	r6, #1
 8002516:	0005      	movs	r5, r0
 8002518:	4b10      	ldr	r3, [pc, #64]	@ (800255c <FLASH_WaitForLastOperation+0x50>)
 800251a:	68da      	ldr	r2, [r3, #12]
 800251c:	4232      	tst	r2, r6
 800251e:	d111      	bne.n	8002544 <FLASH_WaitForLastOperation+0x38>
 8002520:	2220      	movs	r2, #32
 8002522:	68d9      	ldr	r1, [r3, #12]
 8002524:	4211      	tst	r1, r2
 8002526:	d000      	beq.n	800252a <FLASH_WaitForLastOperation+0x1e>
 8002528:	60da      	str	r2, [r3, #12]
 800252a:	68d9      	ldr	r1, [r3, #12]
 800252c:	2210      	movs	r2, #16
 800252e:	0008      	movs	r0, r1
 8002530:	4010      	ands	r0, r2
 8002532:	4211      	tst	r1, r2
 8002534:	d102      	bne.n	800253c <FLASH_WaitForLastOperation+0x30>
 8002536:	68db      	ldr	r3, [r3, #12]
 8002538:	075b      	lsls	r3, r3, #29
 800253a:	d508      	bpl.n	800254e <FLASH_WaitForLastOperation+0x42>
 800253c:	f7ff ffaa 	bl	8002494 <FLASH_SetErrorCode>
 8002540:	2001      	movs	r0, #1
 8002542:	e004      	b.n	800254e <FLASH_WaitForLastOperation+0x42>
 8002544:	1c62      	adds	r2, r4, #1
 8002546:	d0e8      	beq.n	800251a <FLASH_WaitForLastOperation+0xe>
 8002548:	2c00      	cmp	r4, #0
 800254a:	d101      	bne.n	8002550 <FLASH_WaitForLastOperation+0x44>
 800254c:	2003      	movs	r0, #3
 800254e:	bd70      	pop	{r4, r5, r6, pc}
 8002550:	f7ff fafa 	bl	8001b48 <HAL_GetTick>
 8002554:	1b40      	subs	r0, r0, r5
 8002556:	42a0      	cmp	r0, r4
 8002558:	d9de      	bls.n	8002518 <FLASH_WaitForLastOperation+0xc>
 800255a:	e7f7      	b.n	800254c <FLASH_WaitForLastOperation+0x40>
 800255c:	40022000 	.word	0x40022000

08002560 <HAL_FLASH_Program>:
 8002560:	b5f0      	push	{r4, r5, r6, r7, lr}
 8002562:	b085      	sub	sp, #20
 8002564:	9303      	str	r3, [sp, #12]
 8002566:	4b1e      	ldr	r3, [pc, #120]	@ (80025e0 <HAL_FLASH_Program+0x80>)
 8002568:	9100      	str	r1, [sp, #0]
 800256a:	9202      	str	r2, [sp, #8]
 800256c:	7e1a      	ldrb	r2, [r3, #24]
 800256e:	0004      	movs	r4, r0
 8002570:	2002      	movs	r0, #2
 8002572:	2a01      	cmp	r2, #1
 8002574:	d031      	beq.n	80025da <HAL_FLASH_Program+0x7a>
 8002576:	2201      	movs	r2, #1
 8002578:	481a      	ldr	r0, [pc, #104]	@ (80025e4 <HAL_FLASH_Program+0x84>)
 800257a:	761a      	strb	r2, [r3, #24]
 800257c:	f7ff ffc6 	bl	800250c <FLASH_WaitForLastOperation>
 8002580:	2800      	cmp	r0, #0
 8002582:	d127      	bne.n	80025d4 <HAL_FLASH_Program+0x74>
 8002584:	0026      	movs	r6, r4
 8002586:	2c01      	cmp	r4, #1
 8002588:	d003      	beq.n	8002592 <HAL_FLASH_Program+0x32>
 800258a:	2604      	movs	r6, #4
 800258c:	2c02      	cmp	r4, #2
 800258e:	d100      	bne.n	8002592 <HAL_FLASH_Program+0x32>
 8002590:	0026      	movs	r6, r4
 8002592:	2400      	movs	r4, #0
 8002594:	4b12      	ldr	r3, [pc, #72]	@ (80025e0 <HAL_FLASH_Program+0x80>)
 8002596:	9301      	str	r3, [sp, #4]
 8002598:	9802      	ldr	r0, [sp, #8]
 800259a:	9903      	ldr	r1, [sp, #12]
 800259c:	0122      	lsls	r2, r4, #4
 800259e:	f7fd fe49 	bl	8000234 <__aeabi_llsr>
 80025a2:	2200      	movs	r2, #0
 80025a4:	2701      	movs	r7, #1
 80025a6:	9b01      	ldr	r3, [sp, #4]
 80025a8:	4d0f      	ldr	r5, [pc, #60]	@ (80025e8 <HAL_FLASH_Program+0x88>)
 80025aa:	61da      	str	r2, [r3, #28]
 80025ac:	692b      	ldr	r3, [r5, #16]
 80025ae:	9a00      	ldr	r2, [sp, #0]
 80025b0:	433b      	orrs	r3, r7
 80025b2:	612b      	str	r3, [r5, #16]
 80025b4:	0063      	lsls	r3, r4, #1
 80025b6:	189b      	adds	r3, r3, r2
 80025b8:	b280      	uxth	r0, r0
 80025ba:	8018      	strh	r0, [r3, #0]
 80025bc:	4809      	ldr	r0, [pc, #36]	@ (80025e4 <HAL_FLASH_Program+0x84>)
 80025be:	f7ff ffa5 	bl	800250c <FLASH_WaitForLastOperation>
 80025c2:	692b      	ldr	r3, [r5, #16]
 80025c4:	43bb      	bics	r3, r7
 80025c6:	612b      	str	r3, [r5, #16]
 80025c8:	2800      	cmp	r0, #0
 80025ca:	d103      	bne.n	80025d4 <HAL_FLASH_Program+0x74>
 80025cc:	19e4      	adds	r4, r4, r7
 80025ce:	b2e3      	uxtb	r3, r4
 80025d0:	429e      	cmp	r6, r3
 80025d2:	d8e1      	bhi.n	8002598 <HAL_FLASH_Program+0x38>
 80025d4:	2200      	movs	r2, #0
 80025d6:	4b02      	ldr	r3, [pc, #8]	@ (80025e0 <HAL_FLASH_Program+0x80>)
 80025d8:	761a      	strb	r2, [r3, #24]
 80025da:	b005      	add	sp, #20
 80025dc:	bdf0      	pop	{r4, r5, r6, r7, pc}
 80025de:	46c0      	nop			@ (mov r8, r8)
 80025e0:	200004c0 	.word	0x200004c0
 80025e4:	0000c350 	.word	0x0000c350
 80025e8:	40022000 	.word	0x40022000

080025ec <FLASH_MassErase>:
 80025ec:	2200      	movs	r2, #0
 80025ee:	4b06      	ldr	r3, [pc, #24]	@ (8002608 <FLASH_MassErase+0x1c>)
 80025f0:	61da      	str	r2, [r3, #28]
 80025f2:	4b06      	ldr	r3, [pc, #24]	@ (800260c <FLASH_MassErase+0x20>)
 80025f4:	3204      	adds	r2, #4
 80025f6:	6919      	ldr	r1, [r3, #16]
 80025f8:	430a      	orrs	r2, r1
 80025fa:	611a      	str	r2, [r3, #16]
 80025fc:	2240      	movs	r2, #64	@ 0x40
 80025fe:	6919      	ldr	r1, [r3, #16]
 8002600:	430a      	orrs	r2, r1
 8002602:	611a      	str	r2, [r3, #16]
 8002604:	4770      	bx	lr
 8002606:	46c0      	nop			@ (mov r8, r8)
 8002608:	200004c0 	.word	0x200004c0
 800260c:	40022000 	.word	0x40022000

08002610 <FLASH_PageErase>:
 8002610:	2200      	movs	r2, #0
 8002612:	4b06      	ldr	r3, [pc, #24]	@ (800262c <FLASH_PageErase+0x1c>)
 8002614:	61da      	str	r2, [r3, #28]
 8002616:	4b06      	ldr	r3, [pc, #24]	@ (8002630 <FLASH_PageErase+0x20>)
 8002618:	3202      	adds	r2, #2
 800261a:	6919      	ldr	r1, [r3, #16]
 800261c:	430a      	orrs	r2, r1
 800261e:	611a      	str	r2, [r3, #16]
 8002620:	2240      	movs	r2, #64	@ 0x40
 8002622:	6158      	str	r0, [r3, #20]
 8002624:	6919      	ldr	r1, [r3, #16]
 8002626:	430a      	orrs	r2, r1
 8002628:	611a      	str	r2, [r3, #16]
 800262a:	4770      	bx	lr
 800262c:	200004c0 	.word	0x200004c0
 8002630:	40022000 	.word	0x40022000

08002634 <HAL_FLASHEx_Erase>:
 8002634:	b5f8      	push	{r3, r4, r5, r6, r7, lr}
 8002636:	4f21      	ldr	r7, [pc, #132]	@ (80026bc <HAL_FLASHEx_Erase+0x88>)
 8002638:	0004      	movs	r4, r0
 800263a:	7e3b      	ldrb	r3, [r7, #24]
 800263c:	000e      	movs	r6, r1
 800263e:	2002      	movs	r0, #2
 8002640:	2b01      	cmp	r3, #1
 8002642:	d00c      	beq.n	800265e <HAL_FLASHEx_Erase+0x2a>
 8002644:	2301      	movs	r3, #1
 8002646:	763b      	strb	r3, [r7, #24]
 8002648:	6823      	ldr	r3, [r4, #0]
 800264a:	481d      	ldr	r0, [pc, #116]	@ (80026c0 <HAL_FLASHEx_Erase+0x8c>)
 800264c:	2b01      	cmp	r3, #1
 800264e:	d112      	bne.n	8002676 <HAL_FLASHEx_Erase+0x42>
 8002650:	f7ff ff5c 	bl	800250c <FLASH_WaitForLastOperation>
 8002654:	2800      	cmp	r0, #0
 8002656:	d003      	beq.n	8002660 <HAL_FLASHEx_Erase+0x2c>
 8002658:	2001      	movs	r0, #1
 800265a:	2300      	movs	r3, #0
 800265c:	763b      	strb	r3, [r7, #24]
 800265e:	bdf8      	pop	{r3, r4, r5, r6, r7, pc}
 8002660:	f7ff ffc4 	bl	80025ec <FLASH_MassErase>
 8002664:	4816      	ldr	r0, [pc, #88]	@ (80026c0 <HAL_FLASHEx_Erase+0x8c>)
 8002666:	f7ff ff51 	bl	800250c <FLASH_WaitForLastOperation>
 800266a:	2104      	movs	r1, #4
 800266c:	4a15      	ldr	r2, [pc, #84]	@ (80026c4 <HAL_FLASHEx_Erase+0x90>)
 800266e:	6913      	ldr	r3, [r2, #16]
 8002670:	438b      	bics	r3, r1
 8002672:	6113      	str	r3, [r2, #16]
 8002674:	e7f1      	b.n	800265a <HAL_FLASHEx_Erase+0x26>
 8002676:	f7ff ff49 	bl	800250c <FLASH_WaitForLastOperation>
 800267a:	2800      	cmp	r0, #0
 800267c:	d1ec      	bne.n	8002658 <HAL_FLASHEx_Erase+0x24>
 800267e:	2301      	movs	r3, #1
 8002680:	425b      	negs	r3, r3
 8002682:	6033      	str	r3, [r6, #0]
 8002684:	6865      	ldr	r5, [r4, #4]
 8002686:	3001      	adds	r0, #1
 8002688:	68a3      	ldr	r3, [r4, #8]
 800268a:	6862      	ldr	r2, [r4, #4]
 800268c:	029b      	lsls	r3, r3, #10
 800268e:	189b      	adds	r3, r3, r2
 8002690:	42ab      	cmp	r3, r5
 8002692:	d9e2      	bls.n	800265a <HAL_FLASHEx_Erase+0x26>
 8002694:	0028      	movs	r0, r5
 8002696:	f7ff ffbb 	bl	8002610 <FLASH_PageErase>
 800269a:	4809      	ldr	r0, [pc, #36]	@ (80026c0 <HAL_FLASHEx_Erase+0x8c>)
 800269c:	f7ff ff36 	bl	800250c <FLASH_WaitForLastOperation>
 80026a0:	2102      	movs	r1, #2
 80026a2:	4a08      	ldr	r2, [pc, #32]	@ (80026c4 <HAL_FLASHEx_Erase+0x90>)
 80026a4:	6913      	ldr	r3, [r2, #16]
 80026a6:	438b      	bics	r3, r1
 80026a8:	6113      	str	r3, [r2, #16]
 80026aa:	2800      	cmp	r0, #0
 80026ac:	d001      	beq.n	80026b2 <HAL_FLASHEx_Erase+0x7e>
 80026ae:	6035      	str	r5, [r6, #0]
 80026b0:	e7d3      	b.n	800265a <HAL_FLASHEx_Erase+0x26>
 80026b2:	2380      	movs	r3, #128	@ 0x80
 80026b4:	00db      	lsls	r3, r3, #3
 80026b6:	18ed      	adds	r5, r5, r3
 80026b8:	e7e6      	b.n	8002688 <HAL_FLASHEx_Erase+0x54>
 80026ba:	46c0      	nop			@ (mov r8, r8)
 80026bc:	200004c0 	.word	0x200004c0
 80026c0:	0000c350 	.word	0x0000c350
 80026c4:	40022000 	.word	0x40022000

080026c8 <HAL_GPIO_Init>:
 80026c8:	2300      	movs	r3, #0
 80026ca:	b5f0      	push	{r4, r5, r6, r7, lr}
 80026cc:	b087      	sub	sp, #28
 80026ce:	680a      	ldr	r2, [r1, #0]
 80026d0:	0014      	movs	r4, r2
 80026d2:	40dc      	lsrs	r4, r3
 80026d4:	d101      	bne.n	80026da <HAL_GPIO_Init+0x12>
 80026d6:	b007      	add	sp, #28
 80026d8:	bdf0      	pop	{r4, r5, r6, r7, pc}
 80026da:	2401      	movs	r4, #1
 80026dc:	0015      	movs	r5, r2
 80026de:	409c      	lsls	r4, r3
 80026e0:	4025      	ands	r5, r4
 80026e2:	9502      	str	r5, [sp, #8]
 80026e4:	4222      	tst	r2, r4
 80026e6:	d100      	bne.n	80026ea <HAL_GPIO_Init+0x22>
 80026e8:	e094      	b.n	8002814 <HAL_GPIO_Init+0x14c>
 80026ea:	2510      	movs	r5, #16
 80026ec:	684a      	ldr	r2, [r1, #4]
 80026ee:	005f      	lsls	r7, r3, #1
 80026f0:	9201      	str	r2, [sp, #4]
 80026f2:	43aa      	bics	r2, r5
 80026f4:	3d0d      	subs	r5, #13
 80026f6:	40bd      	lsls	r5, r7
 80026f8:	4694      	mov	ip, r2
 80026fa:	3a01      	subs	r2, #1
 80026fc:	43ed      	mvns	r5, r5
 80026fe:	2a01      	cmp	r2, #1
 8002700:	d80d      	bhi.n	800271e <HAL_GPIO_Init+0x56>
 8002702:	68ca      	ldr	r2, [r1, #12]
 8002704:	6886      	ldr	r6, [r0, #8]
 8002706:	40ba      	lsls	r2, r7
 8002708:	402e      	ands	r6, r5
 800270a:	4332      	orrs	r2, r6
 800270c:	6082      	str	r2, [r0, #8]
 800270e:	6842      	ldr	r2, [r0, #4]
 8002710:	43a2      	bics	r2, r4
 8002712:	0014      	movs	r4, r2
 8002714:	9a01      	ldr	r2, [sp, #4]
 8002716:	0912      	lsrs	r2, r2, #4
 8002718:	409a      	lsls	r2, r3
 800271a:	4322      	orrs	r2, r4
 800271c:	6042      	str	r2, [r0, #4]
 800271e:	688a      	ldr	r2, [r1, #8]
 8002720:	68c4      	ldr	r4, [r0, #12]
 8002722:	40ba      	lsls	r2, r7
 8002724:	402c      	ands	r4, r5
 8002726:	4322      	orrs	r2, r4
 8002728:	60c2      	str	r2, [r0, #12]
 800272a:	4662      	mov	r2, ip
 800272c:	2a02      	cmp	r2, #2
 800272e:	d114      	bne.n	800275a <HAL_GPIO_Init+0x92>
 8002730:	2407      	movs	r4, #7
 8002732:	260f      	movs	r6, #15
 8002734:	401c      	ands	r4, r3
 8002736:	00a4      	lsls	r4, r4, #2
 8002738:	40a6      	lsls	r6, r4
 800273a:	46b4      	mov	ip, r6
 800273c:	08da      	lsrs	r2, r3, #3
 800273e:	0092      	lsls	r2, r2, #2
 8002740:	1882      	adds	r2, r0, r2
 8002742:	9203      	str	r2, [sp, #12]
 8002744:	6a12      	ldr	r2, [r2, #32]
 8002746:	0016      	movs	r6, r2
 8002748:	4662      	mov	r2, ip
 800274a:	4396      	bics	r6, r2
 800274c:	46b4      	mov	ip, r6
 800274e:	690e      	ldr	r6, [r1, #16]
 8002750:	4662      	mov	r2, ip
 8002752:	40a6      	lsls	r6, r4
 8002754:	4316      	orrs	r6, r2
 8002756:	9a03      	ldr	r2, [sp, #12]
 8002758:	6216      	str	r6, [r2, #32]
 800275a:	6804      	ldr	r4, [r0, #0]
 800275c:	9a01      	ldr	r2, [sp, #4]
 800275e:	402c      	ands	r4, r5
 8002760:	2503      	movs	r5, #3
 8002762:	402a      	ands	r2, r5
 8002764:	40ba      	lsls	r2, r7
 8002766:	4322      	orrs	r2, r4
 8002768:	2480      	movs	r4, #128	@ 0x80
 800276a:	6002      	str	r2, [r0, #0]
 800276c:	9a01      	ldr	r2, [sp, #4]
 800276e:	0564      	lsls	r4, r4, #21
 8002770:	4222      	tst	r2, r4
 8002772:	d04f      	beq.n	8002814 <HAL_GPIO_Init+0x14c>
 8002774:	4a28      	ldr	r2, [pc, #160]	@ (8002818 <HAL_GPIO_Init+0x150>)
 8002776:	3d02      	subs	r5, #2
 8002778:	6994      	ldr	r4, [r2, #24]
 800277a:	2790      	movs	r7, #144	@ 0x90
 800277c:	432c      	orrs	r4, r5
 800277e:	6194      	str	r4, [r2, #24]
 8002780:	6992      	ldr	r2, [r2, #24]
 8002782:	089c      	lsrs	r4, r3, #2
 8002784:	402a      	ands	r2, r5
 8002786:	9205      	str	r2, [sp, #20]
 8002788:	9a05      	ldr	r2, [sp, #20]
 800278a:	4a24      	ldr	r2, [pc, #144]	@ (800281c <HAL_GPIO_Init+0x154>)
 800278c:	00a4      	lsls	r4, r4, #2
 800278e:	18a4      	adds	r4, r4, r2
 8002790:	220f      	movs	r2, #15
 8002792:	3502      	adds	r5, #2
 8002794:	401d      	ands	r5, r3
 8002796:	00ad      	lsls	r5, r5, #2
 8002798:	40aa      	lsls	r2, r5
 800279a:	68a6      	ldr	r6, [r4, #8]
 800279c:	05ff      	lsls	r7, r7, #23
 800279e:	4396      	bics	r6, r2
 80027a0:	2200      	movs	r2, #0
 80027a2:	42b8      	cmp	r0, r7
 80027a4:	d00c      	beq.n	80027c0 <HAL_GPIO_Init+0xf8>
 80027a6:	4f1e      	ldr	r7, [pc, #120]	@ (8002820 <HAL_GPIO_Init+0x158>)
 80027a8:	3201      	adds	r2, #1
 80027aa:	42b8      	cmp	r0, r7
 80027ac:	d008      	beq.n	80027c0 <HAL_GPIO_Init+0xf8>
 80027ae:	4f1d      	ldr	r7, [pc, #116]	@ (8002824 <HAL_GPIO_Init+0x15c>)
 80027b0:	3201      	adds	r2, #1
 80027b2:	42b8      	cmp	r0, r7
 80027b4:	d004      	beq.n	80027c0 <HAL_GPIO_Init+0xf8>
 80027b6:	4f1c      	ldr	r7, [pc, #112]	@ (8002828 <HAL_GPIO_Init+0x160>)
 80027b8:	3203      	adds	r2, #3
 80027ba:	42b8      	cmp	r0, r7
 80027bc:	d100      	bne.n	80027c0 <HAL_GPIO_Init+0xf8>
 80027be:	3a02      	subs	r2, #2
 80027c0:	40aa      	lsls	r2, r5
 80027c2:	4332      	orrs	r2, r6
 80027c4:	60a2      	str	r2, [r4, #8]
 80027c6:	4a19      	ldr	r2, [pc, #100]	@ (800282c <HAL_GPIO_Init+0x164>)
 80027c8:	9c02      	ldr	r4, [sp, #8]
 80027ca:	6816      	ldr	r6, [r2, #0]
 80027cc:	9d02      	ldr	r5, [sp, #8]
 80027ce:	9f01      	ldr	r7, [sp, #4]
 80027d0:	43e4      	mvns	r4, r4
 80027d2:	4335      	orrs	r5, r6
 80027d4:	03ff      	lsls	r7, r7, #15
 80027d6:	d401      	bmi.n	80027dc <HAL_GPIO_Init+0x114>
 80027d8:	0035      	movs	r5, r6
 80027da:	4025      	ands	r5, r4
 80027dc:	6015      	str	r5, [r2, #0]
 80027de:	6856      	ldr	r6, [r2, #4]
 80027e0:	9d02      	ldr	r5, [sp, #8]
 80027e2:	9f01      	ldr	r7, [sp, #4]
 80027e4:	4335      	orrs	r5, r6
 80027e6:	03bf      	lsls	r7, r7, #14
 80027e8:	d401      	bmi.n	80027ee <HAL_GPIO_Init+0x126>
 80027ea:	0035      	movs	r5, r6
 80027ec:	4025      	ands	r5, r4
 80027ee:	6055      	str	r5, [r2, #4]
 80027f0:	6896      	ldr	r6, [r2, #8]
 80027f2:	9d02      	ldr	r5, [sp, #8]
 80027f4:	9f01      	ldr	r7, [sp, #4]
 80027f6:	4335      	orrs	r5, r6
 80027f8:	02ff      	lsls	r7, r7, #11
 80027fa:	d401      	bmi.n	8002800 <HAL_GPIO_Init+0x138>
 80027fc:	0035      	movs	r5, r6
 80027fe:	4025      	ands	r5, r4
 8002800:	6095      	str	r5, [r2, #8]
 8002802:	68d5      	ldr	r5, [r2, #12]
 8002804:	9e02      	ldr	r6, [sp, #8]
 8002806:	9f01      	ldr	r7, [sp, #4]
 8002808:	432e      	orrs	r6, r5
 800280a:	02bf      	lsls	r7, r7, #10
 800280c:	d401      	bmi.n	8002812 <HAL_GPIO_Init+0x14a>
 800280e:	4025      	ands	r5, r4
 8002810:	002e      	movs	r6, r5
 8002812:	60d6      	str	r6, [r2, #12]
 8002814:	3301      	adds	r3, #1
 8002816:	e75a      	b.n	80026ce <HAL_GPIO_Init+0x6>
 8002818:	40021000 	.word	0x40021000
 800281c:	40010000 	.word	0x40010000
 8002820:	48000400 	.word	0x48000400
 8002824:	48000800 	.word	0x48000800
 8002828:	48000c00 	.word	0x48000c00
 800282c:	40010400 	.word	0x40010400

08002830 <HAL_GPIO_ReadPin>:
 8002830:	6900      	ldr	r0, [r0, #16]
 8002832:	4008      	ands	r0, r1
 8002834:	1e43      	subs	r3, r0, #1
 8002836:	4198      	sbcs	r0, r3
 8002838:	b2c0      	uxtb	r0, r0
 800283a:	4770      	bx	lr

0800283c <HAL_GPIO_WritePin>:
 800283c:	2a00      	cmp	r2, #0
 800283e:	d001      	beq.n	8002844 <HAL_GPIO_WritePin+0x8>
 8002840:	6181      	str	r1, [r0, #24]
 8002842:	4770      	bx	lr
 8002844:	6281      	str	r1, [r0, #40]	@ 0x28
 8002846:	e7fc      	b.n	8002842 <HAL_GPIO_WritePin+0x6>

08002848 <HAL_GPIO_TogglePin>:
 8002848:	6942      	ldr	r2, [r0, #20]
 800284a:	0013      	movs	r3, r2
 800284c:	400b      	ands	r3, r1
 800284e:	041b      	lsls	r3, r3, #16
 8002850:	4391      	bics	r1, r2
 8002852:	430b      	orrs	r3, r1
 8002854:	6183      	str	r3, [r0, #24]
 8002856:	4770      	bx	lr

08002858 <HAL_IWDG_Init>:
 8002858:	b570      	push	{r4, r5, r6, lr}
 800285a:	0004      	movs	r4, r0
 800285c:	2001      	movs	r0, #1
 800285e:	2c00      	cmp	r4, #0
 8002860:	d015      	beq.n	800288e <HAL_IWDG_Init+0x36>
 8002862:	6823      	ldr	r3, [r4, #0]
 8002864:	4a0f      	ldr	r2, [pc, #60]	@ (80028a4 <HAL_IWDG_Init+0x4c>)
 8002866:	601a      	str	r2, [r3, #0]
 8002868:	4a0f      	ldr	r2, [pc, #60]	@ (80028a8 <HAL_IWDG_Init+0x50>)
 800286a:	601a      	str	r2, [r3, #0]
 800286c:	6862      	ldr	r2, [r4, #4]
 800286e:	605a      	str	r2, [r3, #4]
 8002870:	68a2      	ldr	r2, [r4, #8]
 8002872:	609a      	str	r2, [r3, #8]
 8002874:	f7ff f968 	bl	8001b48 <HAL_GetTick>
 8002878:	0005      	movs	r5, r0
 800287a:	6823      	ldr	r3, [r4, #0]
 800287c:	68da      	ldr	r2, [r3, #12]
 800287e:	2a00      	cmp	r2, #0
 8002880:	d106      	bne.n	8002890 <HAL_IWDG_Init+0x38>
 8002882:	6919      	ldr	r1, [r3, #16]
 8002884:	68e2      	ldr	r2, [r4, #12]
 8002886:	4291      	cmp	r1, r2
 8002888:	d009      	beq.n	800289e <HAL_IWDG_Init+0x46>
 800288a:	611a      	str	r2, [r3, #16]
 800288c:	2000      	movs	r0, #0
 800288e:	bd70      	pop	{r4, r5, r6, pc}
 8002890:	f7ff f95a 	bl	8001b48 <HAL_GetTick>
 8002894:	1b40      	subs	r0, r0, r5
 8002896:	2826      	cmp	r0, #38	@ 0x26
 8002898:	d9ef      	bls.n	800287a <HAL_IWDG_Init+0x22>
 800289a:	2003      	movs	r0, #3
 800289c:	e7f7      	b.n	800288e <HAL_IWDG_Init+0x36>
 800289e:	4a03      	ldr	r2, [pc, #12]	@ (80028ac <HAL_IWDG_Init+0x54>)
 80028a0:	601a      	str	r2, [r3, #0]
 80028a2:	e7f3      	b.n	800288c <HAL_IWDG_Init+0x34>
 80028a4:	0000cccc 	.word	0x0000cccc
 80028a8:	00005555 	.word	0x00005555
 80028ac:	0000aaaa 	.word	0x0000aaaa

080028b0 <HAL_IWDG_Refresh>:
 80028b0:	6803      	ldr	r3, [r0, #0]
 80028b2:	4a02      	ldr	r2, [pc, #8]	@ (80028bc <HAL_IWDG_Refresh+0xc>)
 80028b4:	2000      	movs	r0, #0
 80028b6:	601a      	str	r2, [r3, #0]
 80028b8:	4770      	bx	lr
 80028ba:	46c0      	nop			@ (mov r8, r8)
 80028bc:	0000aaaa 	.word	0x0000aaaa

080028c0 <HAL_RCC_OscConfig>:
 80028c0:	b5f0      	push	{r4, r5, r6, r7, lr}
 80028c2:	0004      	movs	r4, r0
 80028c4:	b085      	sub	sp, #20
 80028c6:	2800      	cmp	r0, #0
 80028c8:	d045      	beq.n	8002956 <HAL_RCC_OscConfig+0x96>
 80028ca:	6803      	ldr	r3, [r0, #0]
 80028cc:	07db      	lsls	r3, r3, #31
 80028ce:	d42f      	bmi.n	8002930 <HAL_RCC_OscConfig+0x70>
 80028d0:	6823      	ldr	r3, [r4, #0]
 80028d2:	079b      	lsls	r3, r3, #30
 80028d4:	d500      	bpl.n	80028d8 <HAL_RCC_OscConfig+0x18>
 80028d6:	e081      	b.n	80029dc <HAL_RCC_OscConfig+0x11c>
 80028d8:	6823      	ldr	r3, [r4, #0]
 80028da:	071b      	lsls	r3, r3, #28
 80028dc:	d500      	bpl.n	80028e0 <HAL_RCC_OscConfig+0x20>
 80028de:	e0bc      	b.n	8002a5a <HAL_RCC_OscConfig+0x19a>
 80028e0:	6823      	ldr	r3, [r4, #0]
 80028e2:	075b      	lsls	r3, r3, #29
 80028e4:	d500      	bpl.n	80028e8 <HAL_RCC_OscConfig+0x28>
 80028e6:	e0df      	b.n	8002aa8 <HAL_RCC_OscConfig+0x1e8>
 80028e8:	6823      	ldr	r3, [r4, #0]
 80028ea:	06db      	lsls	r3, r3, #27
 80028ec:	d51a      	bpl.n	8002924 <HAL_RCC_OscConfig+0x64>
 80028ee:	6962      	ldr	r2, [r4, #20]
 80028f0:	2304      	movs	r3, #4
 80028f2:	4db4      	ldr	r5, [pc, #720]	@ (8002bc4 <HAL_RCC_OscConfig+0x304>)
 80028f4:	2a01      	cmp	r2, #1
 80028f6:	d000      	beq.n	80028fa <HAL_RCC_OscConfig+0x3a>
 80028f8:	e148      	b.n	8002b8c <HAL_RCC_OscConfig+0x2cc>
 80028fa:	6b69      	ldr	r1, [r5, #52]	@ 0x34
 80028fc:	2702      	movs	r7, #2
 80028fe:	430b      	orrs	r3, r1
 8002900:	636b      	str	r3, [r5, #52]	@ 0x34
 8002902:	6b6b      	ldr	r3, [r5, #52]	@ 0x34
 8002904:	431a      	orrs	r2, r3
 8002906:	636a      	str	r2, [r5, #52]	@ 0x34
 8002908:	f7ff f91e 	bl	8001b48 <HAL_GetTick>
 800290c:	0006      	movs	r6, r0
 800290e:	6b6b      	ldr	r3, [r5, #52]	@ 0x34
 8002910:	423b      	tst	r3, r7
 8002912:	d100      	bne.n	8002916 <HAL_RCC_OscConfig+0x56>
 8002914:	e133      	b.n	8002b7e <HAL_RCC_OscConfig+0x2be>
 8002916:	21f8      	movs	r1, #248	@ 0xf8
 8002918:	6b6a      	ldr	r2, [r5, #52]	@ 0x34
 800291a:	69a3      	ldr	r3, [r4, #24]
 800291c:	438a      	bics	r2, r1
 800291e:	00db      	lsls	r3, r3, #3
 8002920:	4313      	orrs	r3, r2
 8002922:	636b      	str	r3, [r5, #52]	@ 0x34
 8002924:	6a23      	ldr	r3, [r4, #32]
 8002926:	2b00      	cmp	r3, #0
 8002928:	d000      	beq.n	800292c <HAL_RCC_OscConfig+0x6c>
 800292a:	e157      	b.n	8002bdc <HAL_RCC_OscConfig+0x31c>
 800292c:	2000      	movs	r0, #0
 800292e:	e02a      	b.n	8002986 <HAL_RCC_OscConfig+0xc6>
 8002930:	220c      	movs	r2, #12
 8002932:	4da4      	ldr	r5, [pc, #656]	@ (8002bc4 <HAL_RCC_OscConfig+0x304>)
 8002934:	686b      	ldr	r3, [r5, #4]
 8002936:	4013      	ands	r3, r2
 8002938:	2b04      	cmp	r3, #4
 800293a:	d006      	beq.n	800294a <HAL_RCC_OscConfig+0x8a>
 800293c:	686b      	ldr	r3, [r5, #4]
 800293e:	4013      	ands	r3, r2
 8002940:	2b08      	cmp	r3, #8
 8002942:	d10a      	bne.n	800295a <HAL_RCC_OscConfig+0x9a>
 8002944:	686b      	ldr	r3, [r5, #4]
 8002946:	03db      	lsls	r3, r3, #15
 8002948:	d507      	bpl.n	800295a <HAL_RCC_OscConfig+0x9a>
 800294a:	682b      	ldr	r3, [r5, #0]
 800294c:	039b      	lsls	r3, r3, #14
 800294e:	d5bf      	bpl.n	80028d0 <HAL_RCC_OscConfig+0x10>
 8002950:	6863      	ldr	r3, [r4, #4]
 8002952:	2b00      	cmp	r3, #0
 8002954:	d1bc      	bne.n	80028d0 <HAL_RCC_OscConfig+0x10>
 8002956:	2001      	movs	r0, #1
 8002958:	e015      	b.n	8002986 <HAL_RCC_OscConfig+0xc6>
 800295a:	6863      	ldr	r3, [r4, #4]
 800295c:	2b01      	cmp	r3, #1
 800295e:	d114      	bne.n	800298a <HAL_RCC_OscConfig+0xca>
 8002960:	2380      	movs	r3, #128	@ 0x80
 8002962:	682a      	ldr	r2, [r5, #0]
 8002964:	025b      	lsls	r3, r3, #9
 8002966:	4313      	orrs	r3, r2
 8002968:	602b      	str	r3, [r5, #0]
 800296a:	f7ff f8ed 	bl	8001b48 <HAL_GetTick>
 800296e:	2780      	movs	r7, #128	@ 0x80
 8002970:	0006      	movs	r6, r0
 8002972:	02bf      	lsls	r7, r7, #10
 8002974:	682b      	ldr	r3, [r5, #0]
 8002976:	423b      	tst	r3, r7
 8002978:	d1aa      	bne.n	80028d0 <HAL_RCC_OscConfig+0x10>
 800297a:	f7ff f8e5 	bl	8001b48 <HAL_GetTick>
 800297e:	1b80      	subs	r0, r0, r6
 8002980:	2864      	cmp	r0, #100	@ 0x64
 8002982:	d9f7      	bls.n	8002974 <HAL_RCC_OscConfig+0xb4>
 8002984:	2003      	movs	r0, #3
 8002986:	b005      	add	sp, #20
 8002988:	bdf0      	pop	{r4, r5, r6, r7, pc}
 800298a:	2b00      	cmp	r3, #0
 800298c:	d116      	bne.n	80029bc <HAL_RCC_OscConfig+0xfc>
 800298e:	682b      	ldr	r3, [r5, #0]
 8002990:	4a8d      	ldr	r2, [pc, #564]	@ (8002bc8 <HAL_RCC_OscConfig+0x308>)
 8002992:	2780      	movs	r7, #128	@ 0x80
 8002994:	4013      	ands	r3, r2
 8002996:	602b      	str	r3, [r5, #0]
 8002998:	682b      	ldr	r3, [r5, #0]
 800299a:	4a8c      	ldr	r2, [pc, #560]	@ (8002bcc <HAL_RCC_OscConfig+0x30c>)
 800299c:	02bf      	lsls	r7, r7, #10
 800299e:	4013      	ands	r3, r2
 80029a0:	602b      	str	r3, [r5, #0]
 80029a2:	f7ff f8d1 	bl	8001b48 <HAL_GetTick>
 80029a6:	0006      	movs	r6, r0
 80029a8:	682b      	ldr	r3, [r5, #0]
 80029aa:	423b      	tst	r3, r7
 80029ac:	d100      	bne.n	80029b0 <HAL_RCC_OscConfig+0xf0>
 80029ae:	e78f      	b.n	80028d0 <HAL_RCC_OscConfig+0x10>
 80029b0:	f7ff f8ca 	bl	8001b48 <HAL_GetTick>
 80029b4:	1b80      	subs	r0, r0, r6
 80029b6:	2864      	cmp	r0, #100	@ 0x64
 80029b8:	d9f6      	bls.n	80029a8 <HAL_RCC_OscConfig+0xe8>
 80029ba:	e7e3      	b.n	8002984 <HAL_RCC_OscConfig+0xc4>
 80029bc:	2b05      	cmp	r3, #5
 80029be:	d105      	bne.n	80029cc <HAL_RCC_OscConfig+0x10c>
 80029c0:	2380      	movs	r3, #128	@ 0x80
 80029c2:	682a      	ldr	r2, [r5, #0]
 80029c4:	02db      	lsls	r3, r3, #11
 80029c6:	4313      	orrs	r3, r2
 80029c8:	602b      	str	r3, [r5, #0]
 80029ca:	e7c9      	b.n	8002960 <HAL_RCC_OscConfig+0xa0>
 80029cc:	682b      	ldr	r3, [r5, #0]
 80029ce:	4a7e      	ldr	r2, [pc, #504]	@ (8002bc8 <HAL_RCC_OscConfig+0x308>)
 80029d0:	4013      	ands	r3, r2
 80029d2:	602b      	str	r3, [r5, #0]
 80029d4:	682b      	ldr	r3, [r5, #0]
 80029d6:	4a7d      	ldr	r2, [pc, #500]	@ (8002bcc <HAL_RCC_OscConfig+0x30c>)
 80029d8:	4013      	ands	r3, r2
 80029da:	e7c5      	b.n	8002968 <HAL_RCC_OscConfig+0xa8>
 80029dc:	220c      	movs	r2, #12
 80029de:	4d79      	ldr	r5, [pc, #484]	@ (8002bc4 <HAL_RCC_OscConfig+0x304>)
 80029e0:	686b      	ldr	r3, [r5, #4]
 80029e2:	4213      	tst	r3, r2
 80029e4:	d006      	beq.n	80029f4 <HAL_RCC_OscConfig+0x134>
 80029e6:	686b      	ldr	r3, [r5, #4]
 80029e8:	4013      	ands	r3, r2
 80029ea:	2b08      	cmp	r3, #8
 80029ec:	d110      	bne.n	8002a10 <HAL_RCC_OscConfig+0x150>
 80029ee:	686b      	ldr	r3, [r5, #4]
 80029f0:	03db      	lsls	r3, r3, #15
 80029f2:	d40d      	bmi.n	8002a10 <HAL_RCC_OscConfig+0x150>
 80029f4:	682b      	ldr	r3, [r5, #0]
 80029f6:	079b      	lsls	r3, r3, #30
 80029f8:	d502      	bpl.n	8002a00 <HAL_RCC_OscConfig+0x140>
 80029fa:	68e3      	ldr	r3, [r4, #12]
 80029fc:	2b01      	cmp	r3, #1
 80029fe:	d1aa      	bne.n	8002956 <HAL_RCC_OscConfig+0x96>
 8002a00:	21f8      	movs	r1, #248	@ 0xf8
 8002a02:	682a      	ldr	r2, [r5, #0]
 8002a04:	6923      	ldr	r3, [r4, #16]
 8002a06:	438a      	bics	r2, r1
 8002a08:	00db      	lsls	r3, r3, #3
 8002a0a:	4313      	orrs	r3, r2
 8002a0c:	602b      	str	r3, [r5, #0]
 8002a0e:	e763      	b.n	80028d8 <HAL_RCC_OscConfig+0x18>
 8002a10:	68e2      	ldr	r2, [r4, #12]
 8002a12:	2301      	movs	r3, #1
 8002a14:	2a00      	cmp	r2, #0
 8002a16:	d00f      	beq.n	8002a38 <HAL_RCC_OscConfig+0x178>
 8002a18:	682a      	ldr	r2, [r5, #0]
 8002a1a:	2702      	movs	r7, #2
 8002a1c:	4313      	orrs	r3, r2
 8002a1e:	602b      	str	r3, [r5, #0]
 8002a20:	f7ff f892 	bl	8001b48 <HAL_GetTick>
 8002a24:	0006      	movs	r6, r0
 8002a26:	682b      	ldr	r3, [r5, #0]
 8002a28:	423b      	tst	r3, r7
 8002a2a:	d1e9      	bne.n	8002a00 <HAL_RCC_OscConfig+0x140>
 8002a2c:	f7ff f88c 	bl	8001b48 <HAL_GetTick>
 8002a30:	1b80      	subs	r0, r0, r6
 8002a32:	2802      	cmp	r0, #2
 8002a34:	d9f7      	bls.n	8002a26 <HAL_RCC_OscConfig+0x166>
 8002a36:	e7a5      	b.n	8002984 <HAL_RCC_OscConfig+0xc4>
 8002a38:	682a      	ldr	r2, [r5, #0]
 8002a3a:	2702      	movs	r7, #2
 8002a3c:	439a      	bics	r2, r3
 8002a3e:	602a      	str	r2, [r5, #0]
 8002a40:	f7ff f882 	bl	8001b48 <HAL_GetTick>
 8002a44:	0006      	movs	r6, r0
 8002a46:	682b      	ldr	r3, [r5, #0]
 8002a48:	423b      	tst	r3, r7
 8002a4a:	d100      	bne.n	8002a4e <HAL_RCC_OscConfig+0x18e>
 8002a4c:	e744      	b.n	80028d8 <HAL_RCC_OscConfig+0x18>
 8002a4e:	f7ff f87b 	bl	8001b48 <HAL_GetTick>
 8002a52:	1b80      	subs	r0, r0, r6
 8002a54:	2802      	cmp	r0, #2
 8002a56:	d9f6      	bls.n	8002a46 <HAL_RCC_OscConfig+0x186>
 8002a58:	e794      	b.n	8002984 <HAL_RCC_OscConfig+0xc4>
 8002a5a:	69e2      	ldr	r2, [r4, #28]
 8002a5c:	2301      	movs	r3, #1
 8002a5e:	4d59      	ldr	r5, [pc, #356]	@ (8002bc4 <HAL_RCC_OscConfig+0x304>)
 8002a60:	2a00      	cmp	r2, #0
 8002a62:	d010      	beq.n	8002a86 <HAL_RCC_OscConfig+0x1c6>
 8002a64:	6a6a      	ldr	r2, [r5, #36]	@ 0x24
 8002a66:	2702      	movs	r7, #2
 8002a68:	4313      	orrs	r3, r2
 8002a6a:	626b      	str	r3, [r5, #36]	@ 0x24
 8002a6c:	f7ff f86c 	bl	8001b48 <HAL_GetTick>
 8002a70:	0006      	movs	r6, r0
 8002a72:	6a6b      	ldr	r3, [r5, #36]	@ 0x24
 8002a74:	423b      	tst	r3, r7
 8002a76:	d000      	beq.n	8002a7a <HAL_RCC_OscConfig+0x1ba>
 8002a78:	e732      	b.n	80028e0 <HAL_RCC_OscConfig+0x20>
 8002a7a:	f7ff f865 	bl	8001b48 <HAL_GetTick>
 8002a7e:	1b80      	subs	r0, r0, r6
 8002a80:	2802      	cmp	r0, #2
 8002a82:	d9f6      	bls.n	8002a72 <HAL_RCC_OscConfig+0x1b2>
 8002a84:	e77e      	b.n	8002984 <HAL_RCC_OscConfig+0xc4>
 8002a86:	6a6a      	ldr	r2, [r5, #36]	@ 0x24
 8002a88:	2702      	movs	r7, #2
 8002a8a:	439a      	bics	r2, r3
 8002a8c:	626a      	str	r2, [r5, #36]	@ 0x24
 8002a8e:	f7ff f85b 	bl	8001b48 <HAL_GetTick>
 8002a92:	0006      	movs	r6, r0
 8002a94:	6a6b      	ldr	r3, [r5, #36]	@ 0x24
 8002a96:	423b      	tst	r3, r7
 8002a98:	d100      	bne.n	8002a9c <HAL_RCC_OscConfig+0x1dc>
 8002a9a:	e721      	b.n	80028e0 <HAL_RCC_OscConfig+0x20>
 8002a9c:	f7ff f854 	bl	8001b48 <HAL_GetTick>
 8002aa0:	1b80      	subs	r0, r0, r6
 8002aa2:	2802      	cmp	r0, #2
 8002aa4:	d9f6      	bls.n	8002a94 <HAL_RCC_OscConfig+0x1d4>
 8002aa6:	e76d      	b.n	8002984 <HAL_RCC_OscConfig+0xc4>
 8002aa8:	2280      	movs	r2, #128	@ 0x80
 8002aaa:	2100      	movs	r1, #0
 8002aac:	4d45      	ldr	r5, [pc, #276]	@ (8002bc4 <HAL_RCC_OscConfig+0x304>)
 8002aae:	0552      	lsls	r2, r2, #21
 8002ab0:	69eb      	ldr	r3, [r5, #28]
 8002ab2:	9100      	str	r1, [sp, #0]
 8002ab4:	4213      	tst	r3, r2
 8002ab6:	d108      	bne.n	8002aca <HAL_RCC_OscConfig+0x20a>
 8002ab8:	69eb      	ldr	r3, [r5, #28]
 8002aba:	4313      	orrs	r3, r2
 8002abc:	61eb      	str	r3, [r5, #28]
 8002abe:	69eb      	ldr	r3, [r5, #28]
 8002ac0:	4013      	ands	r3, r2
 8002ac2:	9303      	str	r3, [sp, #12]
 8002ac4:	9b03      	ldr	r3, [sp, #12]
 8002ac6:	2301      	movs	r3, #1
 8002ac8:	9300      	str	r3, [sp, #0]
 8002aca:	2780      	movs	r7, #128	@ 0x80
 8002acc:	4e40      	ldr	r6, [pc, #256]	@ (8002bd0 <HAL_RCC_OscConfig+0x310>)
 8002ace:	007f      	lsls	r7, r7, #1
 8002ad0:	6833      	ldr	r3, [r6, #0]
 8002ad2:	423b      	tst	r3, r7
 8002ad4:	d015      	beq.n	8002b02 <HAL_RCC_OscConfig+0x242>
 8002ad6:	68a3      	ldr	r3, [r4, #8]
 8002ad8:	2b01      	cmp	r3, #1
 8002ada:	d122      	bne.n	8002b22 <HAL_RCC_OscConfig+0x262>
 8002adc:	6a2a      	ldr	r2, [r5, #32]
 8002ade:	4313      	orrs	r3, r2
 8002ae0:	622b      	str	r3, [r5, #32]
 8002ae2:	f7ff f831 	bl	8001b48 <HAL_GetTick>
 8002ae6:	2702      	movs	r7, #2
 8002ae8:	0006      	movs	r6, r0
 8002aea:	6a2b      	ldr	r3, [r5, #32]
 8002aec:	423b      	tst	r3, r7
 8002aee:	d03f      	beq.n	8002b70 <HAL_RCC_OscConfig+0x2b0>
 8002af0:	9b00      	ldr	r3, [sp, #0]
 8002af2:	2b01      	cmp	r3, #1
 8002af4:	d000      	beq.n	8002af8 <HAL_RCC_OscConfig+0x238>
 8002af6:	e6f7      	b.n	80028e8 <HAL_RCC_OscConfig+0x28>
 8002af8:	69eb      	ldr	r3, [r5, #28]
 8002afa:	4a36      	ldr	r2, [pc, #216]	@ (8002bd4 <HAL_RCC_OscConfig+0x314>)
 8002afc:	4013      	ands	r3, r2
 8002afe:	61eb      	str	r3, [r5, #28]
 8002b00:	e6f2      	b.n	80028e8 <HAL_RCC_OscConfig+0x28>
 8002b02:	6833      	ldr	r3, [r6, #0]
 8002b04:	433b      	orrs	r3, r7
 8002b06:	6033      	str	r3, [r6, #0]
 8002b08:	f7ff f81e 	bl	8001b48 <HAL_GetTick>
 8002b0c:	9001      	str	r0, [sp, #4]
 8002b0e:	6833      	ldr	r3, [r6, #0]
 8002b10:	423b      	tst	r3, r7
 8002b12:	d1e0      	bne.n	8002ad6 <HAL_RCC_OscConfig+0x216>
 8002b14:	f7ff f818 	bl	8001b48 <HAL_GetTick>
 8002b18:	9b01      	ldr	r3, [sp, #4]
 8002b1a:	1ac0      	subs	r0, r0, r3
 8002b1c:	2864      	cmp	r0, #100	@ 0x64
 8002b1e:	d9f6      	bls.n	8002b0e <HAL_RCC_OscConfig+0x24e>
 8002b20:	e730      	b.n	8002984 <HAL_RCC_OscConfig+0xc4>
 8002b22:	2201      	movs	r2, #1
 8002b24:	2b00      	cmp	r3, #0
 8002b26:	d114      	bne.n	8002b52 <HAL_RCC_OscConfig+0x292>
 8002b28:	6a2b      	ldr	r3, [r5, #32]
 8002b2a:	2702      	movs	r7, #2
 8002b2c:	4393      	bics	r3, r2
 8002b2e:	622b      	str	r3, [r5, #32]
 8002b30:	6a2b      	ldr	r3, [r5, #32]
 8002b32:	3203      	adds	r2, #3
 8002b34:	4393      	bics	r3, r2
 8002b36:	622b      	str	r3, [r5, #32]
 8002b38:	f7ff f806 	bl	8001b48 <HAL_GetTick>
 8002b3c:	0006      	movs	r6, r0
 8002b3e:	6a2b      	ldr	r3, [r5, #32]
 8002b40:	423b      	tst	r3, r7
 8002b42:	d0d5      	beq.n	8002af0 <HAL_RCC_OscConfig+0x230>
 8002b44:	f7ff f800 	bl	8001b48 <HAL_GetTick>
 8002b48:	4b23      	ldr	r3, [pc, #140]	@ (8002bd8 <HAL_RCC_OscConfig+0x318>)
 8002b4a:	1b80      	subs	r0, r0, r6
 8002b4c:	4298      	cmp	r0, r3
 8002b4e:	d9f6      	bls.n	8002b3e <HAL_RCC_OscConfig+0x27e>
 8002b50:	e718      	b.n	8002984 <HAL_RCC_OscConfig+0xc4>
 8002b52:	2b05      	cmp	r3, #5
 8002b54:	d105      	bne.n	8002b62 <HAL_RCC_OscConfig+0x2a2>
 8002b56:	6a29      	ldr	r1, [r5, #32]
 8002b58:	3b01      	subs	r3, #1
 8002b5a:	430b      	orrs	r3, r1
 8002b5c:	622b      	str	r3, [r5, #32]
 8002b5e:	6a2b      	ldr	r3, [r5, #32]
 8002b60:	e7bd      	b.n	8002ade <HAL_RCC_OscConfig+0x21e>
 8002b62:	6a2b      	ldr	r3, [r5, #32]
 8002b64:	4393      	bics	r3, r2
 8002b66:	2204      	movs	r2, #4
 8002b68:	622b      	str	r3, [r5, #32]
 8002b6a:	6a2b      	ldr	r3, [r5, #32]
 8002b6c:	4393      	bics	r3, r2
 8002b6e:	e7b7      	b.n	8002ae0 <HAL_RCC_OscConfig+0x220>
 8002b70:	f7fe ffea 	bl	8001b48 <HAL_GetTick>
 8002b74:	4b18      	ldr	r3, [pc, #96]	@ (8002bd8 <HAL_RCC_OscConfig+0x318>)
 8002b76:	1b80      	subs	r0, r0, r6
 8002b78:	4298      	cmp	r0, r3
 8002b7a:	d9b6      	bls.n	8002aea <HAL_RCC_OscConfig+0x22a>
 8002b7c:	e702      	b.n	8002984 <HAL_RCC_OscConfig+0xc4>
 8002b7e:	f7fe ffe3 	bl	8001b48 <HAL_GetTick>
 8002b82:	1b80      	subs	r0, r0, r6
 8002b84:	2802      	cmp	r0, #2
 8002b86:	d800      	bhi.n	8002b8a <HAL_RCC_OscConfig+0x2ca>
 8002b88:	e6c1      	b.n	800290e <HAL_RCC_OscConfig+0x4e>
 8002b8a:	e6fb      	b.n	8002984 <HAL_RCC_OscConfig+0xc4>
 8002b8c:	3205      	adds	r2, #5
 8002b8e:	d103      	bne.n	8002b98 <HAL_RCC_OscConfig+0x2d8>
 8002b90:	6b6a      	ldr	r2, [r5, #52]	@ 0x34
 8002b92:	439a      	bics	r2, r3
 8002b94:	636a      	str	r2, [r5, #52]	@ 0x34
 8002b96:	e6be      	b.n	8002916 <HAL_RCC_OscConfig+0x56>
 8002b98:	6b6a      	ldr	r2, [r5, #52]	@ 0x34
 8002b9a:	2702      	movs	r7, #2
 8002b9c:	4313      	orrs	r3, r2
 8002b9e:	2201      	movs	r2, #1
 8002ba0:	636b      	str	r3, [r5, #52]	@ 0x34
 8002ba2:	6b6b      	ldr	r3, [r5, #52]	@ 0x34
 8002ba4:	4393      	bics	r3, r2
 8002ba6:	636b      	str	r3, [r5, #52]	@ 0x34
 8002ba8:	f7fe ffce 	bl	8001b48 <HAL_GetTick>
 8002bac:	0006      	movs	r6, r0
 8002bae:	6b6b      	ldr	r3, [r5, #52]	@ 0x34
 8002bb0:	423b      	tst	r3, r7
 8002bb2:	d100      	bne.n	8002bb6 <HAL_RCC_OscConfig+0x2f6>
 8002bb4:	e6b6      	b.n	8002924 <HAL_RCC_OscConfig+0x64>
 8002bb6:	f7fe ffc7 	bl	8001b48 <HAL_GetTick>
 8002bba:	1b80      	subs	r0, r0, r6
 8002bbc:	2802      	cmp	r0, #2
 8002bbe:	d9f6      	bls.n	8002bae <HAL_RCC_OscConfig+0x2ee>
 8002bc0:	e6e0      	b.n	8002984 <HAL_RCC_OscConfig+0xc4>
 8002bc2:	46c0      	nop			@ (mov r8, r8)
 8002bc4:	40021000 	.word	0x40021000
 8002bc8:	fffeffff 	.word	0xfffeffff
 8002bcc:	fffbffff 	.word	0xfffbffff
 8002bd0:	40007000 	.word	0x40007000
 8002bd4:	efffffff 	.word	0xefffffff
 8002bd8:	00001388 	.word	0x00001388
 8002bdc:	210c      	movs	r1, #12
 8002bde:	4d34      	ldr	r5, [pc, #208]	@ (8002cb0 <HAL_RCC_OscConfig+0x3f0>)
 8002be0:	686a      	ldr	r2, [r5, #4]
 8002be2:	400a      	ands	r2, r1
 8002be4:	2a08      	cmp	r2, #8
 8002be6:	d047      	beq.n	8002c78 <HAL_RCC_OscConfig+0x3b8>
 8002be8:	4a32      	ldr	r2, [pc, #200]	@ (8002cb4 <HAL_RCC_OscConfig+0x3f4>)
 8002bea:	2b02      	cmp	r3, #2
 8002bec:	d132      	bne.n	8002c54 <HAL_RCC_OscConfig+0x394>
 8002bee:	682b      	ldr	r3, [r5, #0]
 8002bf0:	2780      	movs	r7, #128	@ 0x80
 8002bf2:	4013      	ands	r3, r2
 8002bf4:	602b      	str	r3, [r5, #0]
 8002bf6:	f7fe ffa7 	bl	8001b48 <HAL_GetTick>
 8002bfa:	0006      	movs	r6, r0
 8002bfc:	04bf      	lsls	r7, r7, #18
 8002bfe:	682b      	ldr	r3, [r5, #0]
 8002c00:	423b      	tst	r3, r7
 8002c02:	d121      	bne.n	8002c48 <HAL_RCC_OscConfig+0x388>
 8002c04:	220f      	movs	r2, #15
 8002c06:	6aeb      	ldr	r3, [r5, #44]	@ 0x2c
 8002c08:	2680      	movs	r6, #128	@ 0x80
 8002c0a:	4393      	bics	r3, r2
 8002c0c:	6ae2      	ldr	r2, [r4, #44]	@ 0x2c
 8002c0e:	04b6      	lsls	r6, r6, #18
 8002c10:	4313      	orrs	r3, r2
 8002c12:	62eb      	str	r3, [r5, #44]	@ 0x2c
 8002c14:	6a61      	ldr	r1, [r4, #36]	@ 0x24
 8002c16:	6aa3      	ldr	r3, [r4, #40]	@ 0x28
 8002c18:	686a      	ldr	r2, [r5, #4]
 8002c1a:	430b      	orrs	r3, r1
 8002c1c:	4926      	ldr	r1, [pc, #152]	@ (8002cb8 <HAL_RCC_OscConfig+0x3f8>)
 8002c1e:	400a      	ands	r2, r1
 8002c20:	4313      	orrs	r3, r2
 8002c22:	606b      	str	r3, [r5, #4]
 8002c24:	2380      	movs	r3, #128	@ 0x80
 8002c26:	682a      	ldr	r2, [r5, #0]
 8002c28:	045b      	lsls	r3, r3, #17
 8002c2a:	4313      	orrs	r3, r2
 8002c2c:	602b      	str	r3, [r5, #0]
 8002c2e:	f7fe ff8b 	bl	8001b48 <HAL_GetTick>
 8002c32:	0004      	movs	r4, r0
 8002c34:	682b      	ldr	r3, [r5, #0]
 8002c36:	4233      	tst	r3, r6
 8002c38:	d000      	beq.n	8002c3c <HAL_RCC_OscConfig+0x37c>
 8002c3a:	e677      	b.n	800292c <HAL_RCC_OscConfig+0x6c>
 8002c3c:	f7fe ff84 	bl	8001b48 <HAL_GetTick>
 8002c40:	1b00      	subs	r0, r0, r4
 8002c42:	2802      	cmp	r0, #2
 8002c44:	d9f6      	bls.n	8002c34 <HAL_RCC_OscConfig+0x374>
 8002c46:	e69d      	b.n	8002984 <HAL_RCC_OscConfig+0xc4>
 8002c48:	f7fe ff7e 	bl	8001b48 <HAL_GetTick>
 8002c4c:	1b80      	subs	r0, r0, r6
 8002c4e:	2802      	cmp	r0, #2
 8002c50:	d9d5      	bls.n	8002bfe <HAL_RCC_OscConfig+0x33e>
 8002c52:	e697      	b.n	8002984 <HAL_RCC_OscConfig+0xc4>
 8002c54:	682b      	ldr	r3, [r5, #0]
 8002c56:	2680      	movs	r6, #128	@ 0x80
 8002c58:	4013      	ands	r3, r2
 8002c5a:	602b      	str	r3, [r5, #0]
 8002c5c:	f7fe ff74 	bl	8001b48 <HAL_GetTick>
 8002c60:	0004      	movs	r4, r0
 8002c62:	04b6      	lsls	r6, r6, #18
 8002c64:	682b      	ldr	r3, [r5, #0]
 8002c66:	4233      	tst	r3, r6
 8002c68:	d100      	bne.n	8002c6c <HAL_RCC_OscConfig+0x3ac>
 8002c6a:	e65f      	b.n	800292c <HAL_RCC_OscConfig+0x6c>
 8002c6c:	f7fe ff6c 	bl	8001b48 <HAL_GetTick>
 8002c70:	1b00      	subs	r0, r0, r4
 8002c72:	2802      	cmp	r0, #2
 8002c74:	d9f6      	bls.n	8002c64 <HAL_RCC_OscConfig+0x3a4>
 8002c76:	e685      	b.n	8002984 <HAL_RCC_OscConfig+0xc4>
 8002c78:	2b01      	cmp	r3, #1
 8002c7a:	d100      	bne.n	8002c7e <HAL_RCC_OscConfig+0x3be>
 8002c7c:	e66b      	b.n	8002956 <HAL_RCC_OscConfig+0x96>
 8002c7e:	2280      	movs	r2, #128	@ 0x80
 8002c80:	6868      	ldr	r0, [r5, #4]
 8002c82:	6a61      	ldr	r1, [r4, #36]	@ 0x24
 8002c84:	0252      	lsls	r2, r2, #9
 8002c86:	6aeb      	ldr	r3, [r5, #44]	@ 0x2c
 8002c88:	4002      	ands	r2, r0
 8002c8a:	428a      	cmp	r2, r1
 8002c8c:	d000      	beq.n	8002c90 <HAL_RCC_OscConfig+0x3d0>
 8002c8e:	e662      	b.n	8002956 <HAL_RCC_OscConfig+0x96>
 8002c90:	220f      	movs	r2, #15
 8002c92:	4013      	ands	r3, r2
 8002c94:	6ae2      	ldr	r2, [r4, #44]	@ 0x2c
 8002c96:	4293      	cmp	r3, r2
 8002c98:	d000      	beq.n	8002c9c <HAL_RCC_OscConfig+0x3dc>
 8002c9a:	e65c      	b.n	8002956 <HAL_RCC_OscConfig+0x96>
 8002c9c:	23f0      	movs	r3, #240	@ 0xf0
 8002c9e:	039b      	lsls	r3, r3, #14
 8002ca0:	4018      	ands	r0, r3
 8002ca2:	6aa3      	ldr	r3, [r4, #40]	@ 0x28
 8002ca4:	1ac0      	subs	r0, r0, r3
 8002ca6:	1e43      	subs	r3, r0, #1
 8002ca8:	4198      	sbcs	r0, r3
 8002caa:	b2c0      	uxtb	r0, r0
 8002cac:	e66b      	b.n	8002986 <HAL_RCC_OscConfig+0xc6>
 8002cae:	46c0      	nop			@ (mov r8, r8)
 8002cb0:	40021000 	.word	0x40021000
 8002cb4:	feffffff 	.word	0xfeffffff
 8002cb8:	ffc2ffff 	.word	0xffc2ffff

08002cbc <HAL_RCC_GetSysClockFreq>:
 8002cbc:	b530      	push	{r4, r5, lr}
 8002cbe:	b089      	sub	sp, #36	@ 0x24
 8002cc0:	2210      	movs	r2, #16
 8002cc2:	4912      	ldr	r1, [pc, #72]	@ (8002d0c <HAL_RCC_GetSysClockFreq+0x50>)
 8002cc4:	4668      	mov	r0, sp
 8002cc6:	ad04      	add	r5, sp, #16
 8002cc8:	f000 ffd0 	bl	8003c6c <memcpy>
 8002ccc:	2210      	movs	r2, #16
 8002cce:	0028      	movs	r0, r5
 8002cd0:	490f      	ldr	r1, [pc, #60]	@ (8002d10 <HAL_RCC_GetSysClockFreq+0x54>)
 8002cd2:	f000 ffcb 	bl	8003c6c <memcpy>
 8002cd6:	220c      	movs	r2, #12
 8002cd8:	480e      	ldr	r0, [pc, #56]	@ (8002d14 <HAL_RCC_GetSysClockFreq+0x58>)
 8002cda:	6843      	ldr	r3, [r0, #4]
 8002cdc:	401a      	ands	r2, r3
 8002cde:	2a08      	cmp	r2, #8
 8002ce0:	d111      	bne.n	8002d06 <HAL_RCC_GetSysClockFreq+0x4a>
 8002ce2:	210f      	movs	r1, #15
 8002ce4:	466c      	mov	r4, sp
 8002ce6:	0c9a      	lsrs	r2, r3, #18
 8002ce8:	400a      	ands	r2, r1
 8002cea:	5ca4      	ldrb	r4, [r4, r2]
 8002cec:	6ac2      	ldr	r2, [r0, #44]	@ 0x2c
 8002cee:	03db      	lsls	r3, r3, #15
 8002cf0:	d507      	bpl.n	8002d02 <HAL_RCC_GetSysClockFreq+0x46>
 8002cf2:	400a      	ands	r2, r1
 8002cf4:	5ca9      	ldrb	r1, [r5, r2]
 8002cf6:	4808      	ldr	r0, [pc, #32]	@ (8002d18 <HAL_RCC_GetSysClockFreq+0x5c>)
 8002cf8:	f7fd fa10 	bl	800011c <__udivsi3>
 8002cfc:	4360      	muls	r0, r4
 8002cfe:	b009      	add	sp, #36	@ 0x24
 8002d00:	bd30      	pop	{r4, r5, pc}
 8002d02:	4806      	ldr	r0, [pc, #24]	@ (8002d1c <HAL_RCC_GetSysClockFreq+0x60>)
 8002d04:	e7fa      	b.n	8002cfc <HAL_RCC_GetSysClockFreq+0x40>
 8002d06:	4804      	ldr	r0, [pc, #16]	@ (8002d18 <HAL_RCC_GetSysClockFreq+0x5c>)
 8002d08:	e7f9      	b.n	8002cfe <HAL_RCC_GetSysClockFreq+0x42>
 8002d0a:	46c0      	nop			@ (mov r8, r8)
 8002d0c:	08003ef0 	.word	0x08003ef0
 8002d10:	08003f01 	.word	0x08003f01
 8002d14:	40021000 	.word	0x40021000
 8002d18:	007a1200 	.word	0x007a1200
 8002d1c:	003d0900 	.word	0x003d0900

08002d20 <HAL_RCC_ClockConfig>:
 8002d20:	b5f7      	push	{r0, r1, r2, r4, r5, r6, r7, lr}
 8002d22:	0004      	movs	r4, r0
 8002d24:	000e      	movs	r6, r1
 8002d26:	2800      	cmp	r0, #0
 8002d28:	d101      	bne.n	8002d2e <HAL_RCC_ClockConfig+0xe>
 8002d2a:	2001      	movs	r0, #1
 8002d2c:	bdfe      	pop	{r1, r2, r3, r4, r5, r6, r7, pc}
 8002d2e:	2201      	movs	r2, #1
 8002d30:	4d37      	ldr	r5, [pc, #220]	@ (8002e10 <HAL_RCC_ClockConfig+0xf0>)
 8002d32:	682b      	ldr	r3, [r5, #0]
 8002d34:	4013      	ands	r3, r2
 8002d36:	428b      	cmp	r3, r1
 8002d38:	d31c      	bcc.n	8002d74 <HAL_RCC_ClockConfig+0x54>
 8002d3a:	6822      	ldr	r2, [r4, #0]
 8002d3c:	0793      	lsls	r3, r2, #30
 8002d3e:	d422      	bmi.n	8002d86 <HAL_RCC_ClockConfig+0x66>
 8002d40:	07d2      	lsls	r2, r2, #31
 8002d42:	d42f      	bmi.n	8002da4 <HAL_RCC_ClockConfig+0x84>
 8002d44:	2301      	movs	r3, #1
 8002d46:	682a      	ldr	r2, [r5, #0]
 8002d48:	401a      	ands	r2, r3
 8002d4a:	42b2      	cmp	r2, r6
 8002d4c:	d851      	bhi.n	8002df2 <HAL_RCC_ClockConfig+0xd2>
 8002d4e:	6823      	ldr	r3, [r4, #0]
 8002d50:	4d30      	ldr	r5, [pc, #192]	@ (8002e14 <HAL_RCC_ClockConfig+0xf4>)
 8002d52:	075b      	lsls	r3, r3, #29
 8002d54:	d454      	bmi.n	8002e00 <HAL_RCC_ClockConfig+0xe0>
 8002d56:	f7ff ffb1 	bl	8002cbc <HAL_RCC_GetSysClockFreq>
 8002d5a:	686b      	ldr	r3, [r5, #4]
 8002d5c:	4a2e      	ldr	r2, [pc, #184]	@ (8002e18 <HAL_RCC_ClockConfig+0xf8>)
 8002d5e:	061b      	lsls	r3, r3, #24
 8002d60:	0f1b      	lsrs	r3, r3, #28
 8002d62:	5cd3      	ldrb	r3, [r2, r3]
 8002d64:	492d      	ldr	r1, [pc, #180]	@ (8002e1c <HAL_RCC_ClockConfig+0xfc>)
 8002d66:	40d8      	lsrs	r0, r3
 8002d68:	6008      	str	r0, [r1, #0]
 8002d6a:	2000      	movs	r0, #0
 8002d6c:	f7fe feac 	bl	8001ac8 <HAL_InitTick>
 8002d70:	2000      	movs	r0, #0
 8002d72:	e7db      	b.n	8002d2c <HAL_RCC_ClockConfig+0xc>
 8002d74:	682b      	ldr	r3, [r5, #0]
 8002d76:	4393      	bics	r3, r2
 8002d78:	430b      	orrs	r3, r1
 8002d7a:	602b      	str	r3, [r5, #0]
 8002d7c:	682b      	ldr	r3, [r5, #0]
 8002d7e:	4013      	ands	r3, r2
 8002d80:	428b      	cmp	r3, r1
 8002d82:	d1d2      	bne.n	8002d2a <HAL_RCC_ClockConfig+0xa>
 8002d84:	e7d9      	b.n	8002d3a <HAL_RCC_ClockConfig+0x1a>
 8002d86:	4923      	ldr	r1, [pc, #140]	@ (8002e14 <HAL_RCC_ClockConfig+0xf4>)
 8002d88:	0753      	lsls	r3, r2, #29
 8002d8a:	d504      	bpl.n	8002d96 <HAL_RCC_ClockConfig+0x76>
 8002d8c:	23e0      	movs	r3, #224	@ 0xe0
 8002d8e:	6848      	ldr	r0, [r1, #4]
 8002d90:	00db      	lsls	r3, r3, #3
 8002d92:	4303      	orrs	r3, r0
 8002d94:	604b      	str	r3, [r1, #4]
 8002d96:	20f0      	movs	r0, #240	@ 0xf0
 8002d98:	684b      	ldr	r3, [r1, #4]
 8002d9a:	4383      	bics	r3, r0
 8002d9c:	68a0      	ldr	r0, [r4, #8]
 8002d9e:	4303      	orrs	r3, r0
 8002da0:	604b      	str	r3, [r1, #4]
 8002da2:	e7cd      	b.n	8002d40 <HAL_RCC_ClockConfig+0x20>
 8002da4:	4f1b      	ldr	r7, [pc, #108]	@ (8002e14 <HAL_RCC_ClockConfig+0xf4>)
 8002da6:	6862      	ldr	r2, [r4, #4]
 8002da8:	683b      	ldr	r3, [r7, #0]
 8002daa:	2a01      	cmp	r2, #1
 8002dac:	d119      	bne.n	8002de2 <HAL_RCC_ClockConfig+0xc2>
 8002dae:	039b      	lsls	r3, r3, #14
 8002db0:	d5bb      	bpl.n	8002d2a <HAL_RCC_ClockConfig+0xa>
 8002db2:	2103      	movs	r1, #3
 8002db4:	687b      	ldr	r3, [r7, #4]
 8002db6:	438b      	bics	r3, r1
 8002db8:	4313      	orrs	r3, r2
 8002dba:	607b      	str	r3, [r7, #4]
 8002dbc:	f7fe fec4 	bl	8001b48 <HAL_GetTick>
 8002dc0:	9001      	str	r0, [sp, #4]
 8002dc2:	230c      	movs	r3, #12
 8002dc4:	687a      	ldr	r2, [r7, #4]
 8002dc6:	401a      	ands	r2, r3
 8002dc8:	6863      	ldr	r3, [r4, #4]
 8002dca:	009b      	lsls	r3, r3, #2
 8002dcc:	429a      	cmp	r2, r3
 8002dce:	d0b9      	beq.n	8002d44 <HAL_RCC_ClockConfig+0x24>
 8002dd0:	f7fe feba 	bl	8001b48 <HAL_GetTick>
 8002dd4:	9b01      	ldr	r3, [sp, #4]
 8002dd6:	1ac0      	subs	r0, r0, r3
 8002dd8:	4b11      	ldr	r3, [pc, #68]	@ (8002e20 <HAL_RCC_ClockConfig+0x100>)
 8002dda:	4298      	cmp	r0, r3
 8002ddc:	d9f1      	bls.n	8002dc2 <HAL_RCC_ClockConfig+0xa2>
 8002dde:	2003      	movs	r0, #3
 8002de0:	e7a4      	b.n	8002d2c <HAL_RCC_ClockConfig+0xc>
 8002de2:	2a02      	cmp	r2, #2
 8002de4:	d102      	bne.n	8002dec <HAL_RCC_ClockConfig+0xcc>
 8002de6:	019b      	lsls	r3, r3, #6
 8002de8:	d4e3      	bmi.n	8002db2 <HAL_RCC_ClockConfig+0x92>
 8002dea:	e79e      	b.n	8002d2a <HAL_RCC_ClockConfig+0xa>
 8002dec:	079b      	lsls	r3, r3, #30
 8002dee:	d4e0      	bmi.n	8002db2 <HAL_RCC_ClockConfig+0x92>
 8002df0:	e79b      	b.n	8002d2a <HAL_RCC_ClockConfig+0xa>
 8002df2:	682a      	ldr	r2, [r5, #0]
 8002df4:	439a      	bics	r2, r3
 8002df6:	602a      	str	r2, [r5, #0]
 8002df8:	682a      	ldr	r2, [r5, #0]
 8002dfa:	421a      	tst	r2, r3
 8002dfc:	d0a7      	beq.n	8002d4e <HAL_RCC_ClockConfig+0x2e>
 8002dfe:	e794      	b.n	8002d2a <HAL_RCC_ClockConfig+0xa>
 8002e00:	686b      	ldr	r3, [r5, #4]
 8002e02:	4a08      	ldr	r2, [pc, #32]	@ (8002e24 <HAL_RCC_ClockConfig+0x104>)
 8002e04:	4013      	ands	r3, r2
 8002e06:	68e2      	ldr	r2, [r4, #12]
 8002e08:	4313      	orrs	r3, r2
 8002e0a:	606b      	str	r3, [r5, #4]
 8002e0c:	e7a3      	b.n	8002d56 <HAL_RCC_ClockConfig+0x36>
 8002e0e:	46c0      	nop			@ (mov r8, r8)
 8002e10:	40022000 	.word	0x40022000
 8002e14:	40021000 	.word	0x40021000
 8002e18:	08003ee0 	.word	0x08003ee0
 8002e1c:	20000000 	.word	0x20000000
 8002e20:	00001388 	.word	0x00001388
 8002e24:	fffff8ff 	.word	0xfffff8ff

08002e28 <HAL_RCC_GetPCLK1Freq>:
 8002e28:	4b04      	ldr	r3, [pc, #16]	@ (8002e3c <HAL_RCC_GetPCLK1Freq+0x14>)
 8002e2a:	4a05      	ldr	r2, [pc, #20]	@ (8002e40 <HAL_RCC_GetPCLK1Freq+0x18>)
 8002e2c:	685b      	ldr	r3, [r3, #4]
 8002e2e:	4905      	ldr	r1, [pc, #20]	@ (8002e44 <HAL_RCC_GetPCLK1Freq+0x1c>)
 8002e30:	055b      	lsls	r3, r3, #21
 8002e32:	0f5b      	lsrs	r3, r3, #29
 8002e34:	5ccb      	ldrb	r3, [r1, r3]
 8002e36:	6810      	ldr	r0, [r2, #0]
 8002e38:	40d8      	lsrs	r0, r3
 8002e3a:	4770      	bx	lr
 8002e3c:	40021000 	.word	0x40021000
 8002e40:	20000000 	.word	0x20000000
 8002e44:	08003ed8 	.word	0x08003ed8

08002e48 <HAL_RCCEx_PeriphCLKConfig>:
 8002e48:	b5f0      	push	{r4, r5, r6, r7, lr}
 8002e4a:	6803      	ldr	r3, [r0, #0]
 8002e4c:	0005      	movs	r5, r0
 8002e4e:	b085      	sub	sp, #20
 8002e50:	03db      	lsls	r3, r3, #15
 8002e52:	d52b      	bpl.n	8002eac <HAL_RCCEx_PeriphCLKConfig+0x64>
 8002e54:	2280      	movs	r2, #128	@ 0x80
 8002e56:	2100      	movs	r1, #0
 8002e58:	4c38      	ldr	r4, [pc, #224]	@ (8002f3c <HAL_RCCEx_PeriphCLKConfig+0xf4>)
 8002e5a:	0552      	lsls	r2, r2, #21
 8002e5c:	69e3      	ldr	r3, [r4, #28]
 8002e5e:	9100      	str	r1, [sp, #0]
 8002e60:	4213      	tst	r3, r2
 8002e62:	d108      	bne.n	8002e76 <HAL_RCCEx_PeriphCLKConfig+0x2e>
 8002e64:	69e3      	ldr	r3, [r4, #28]
 8002e66:	4313      	orrs	r3, r2
 8002e68:	61e3      	str	r3, [r4, #28]
 8002e6a:	69e3      	ldr	r3, [r4, #28]
 8002e6c:	4013      	ands	r3, r2
 8002e6e:	9303      	str	r3, [sp, #12]
 8002e70:	9b03      	ldr	r3, [sp, #12]
 8002e72:	2301      	movs	r3, #1
 8002e74:	9300      	str	r3, [sp, #0]
 8002e76:	2780      	movs	r7, #128	@ 0x80
 8002e78:	4e31      	ldr	r6, [pc, #196]	@ (8002f40 <HAL_RCCEx_PeriphCLKConfig+0xf8>)
 8002e7a:	007f      	lsls	r7, r7, #1
 8002e7c:	6833      	ldr	r3, [r6, #0]
 8002e7e:	423b      	tst	r3, r7
 8002e80:	d022      	beq.n	8002ec8 <HAL_RCCEx_PeriphCLKConfig+0x80>
 8002e82:	6a21      	ldr	r1, [r4, #32]
 8002e84:	22c0      	movs	r2, #192	@ 0xc0
 8002e86:	0008      	movs	r0, r1
 8002e88:	0092      	lsls	r2, r2, #2
 8002e8a:	686b      	ldr	r3, [r5, #4]
 8002e8c:	4e2d      	ldr	r6, [pc, #180]	@ (8002f44 <HAL_RCCEx_PeriphCLKConfig+0xfc>)
 8002e8e:	4010      	ands	r0, r2
 8002e90:	4211      	tst	r1, r2
 8002e92:	d12b      	bne.n	8002eec <HAL_RCCEx_PeriphCLKConfig+0xa4>
 8002e94:	6a23      	ldr	r3, [r4, #32]
 8002e96:	686a      	ldr	r2, [r5, #4]
 8002e98:	4033      	ands	r3, r6
 8002e9a:	4313      	orrs	r3, r2
 8002e9c:	6223      	str	r3, [r4, #32]
 8002e9e:	9b00      	ldr	r3, [sp, #0]
 8002ea0:	2b01      	cmp	r3, #1
 8002ea2:	d103      	bne.n	8002eac <HAL_RCCEx_PeriphCLKConfig+0x64>
 8002ea4:	69e3      	ldr	r3, [r4, #28]
 8002ea6:	4a28      	ldr	r2, [pc, #160]	@ (8002f48 <HAL_RCCEx_PeriphCLKConfig+0x100>)
 8002ea8:	4013      	ands	r3, r2
 8002eaa:	61e3      	str	r3, [r4, #28]
 8002eac:	682a      	ldr	r2, [r5, #0]
 8002eae:	07d3      	lsls	r3, r2, #31
 8002eb0:	d506      	bpl.n	8002ec0 <HAL_RCCEx_PeriphCLKConfig+0x78>
 8002eb2:	2003      	movs	r0, #3
 8002eb4:	4921      	ldr	r1, [pc, #132]	@ (8002f3c <HAL_RCCEx_PeriphCLKConfig+0xf4>)
 8002eb6:	6b0b      	ldr	r3, [r1, #48]	@ 0x30
 8002eb8:	4383      	bics	r3, r0
 8002eba:	68a8      	ldr	r0, [r5, #8]
 8002ebc:	4303      	orrs	r3, r0
 8002ebe:	630b      	str	r3, [r1, #48]	@ 0x30
 8002ec0:	0692      	lsls	r2, r2, #26
 8002ec2:	d433      	bmi.n	8002f2c <HAL_RCCEx_PeriphCLKConfig+0xe4>
 8002ec4:	2000      	movs	r0, #0
 8002ec6:	e00f      	b.n	8002ee8 <HAL_RCCEx_PeriphCLKConfig+0xa0>
 8002ec8:	6833      	ldr	r3, [r6, #0]
 8002eca:	433b      	orrs	r3, r7
 8002ecc:	6033      	str	r3, [r6, #0]
 8002ece:	f7fe fe3b 	bl	8001b48 <HAL_GetTick>
 8002ed2:	9001      	str	r0, [sp, #4]
 8002ed4:	6833      	ldr	r3, [r6, #0]
 8002ed6:	423b      	tst	r3, r7
 8002ed8:	d1d3      	bne.n	8002e82 <HAL_RCCEx_PeriphCLKConfig+0x3a>
 8002eda:	f7fe fe35 	bl	8001b48 <HAL_GetTick>
 8002ede:	9b01      	ldr	r3, [sp, #4]
 8002ee0:	1ac0      	subs	r0, r0, r3
 8002ee2:	2864      	cmp	r0, #100	@ 0x64
 8002ee4:	d9f6      	bls.n	8002ed4 <HAL_RCCEx_PeriphCLKConfig+0x8c>
 8002ee6:	2003      	movs	r0, #3
 8002ee8:	b005      	add	sp, #20
 8002eea:	bdf0      	pop	{r4, r5, r6, r7, pc}
 8002eec:	4013      	ands	r3, r2
 8002eee:	4283      	cmp	r3, r0
 8002ef0:	d0d0      	beq.n	8002e94 <HAL_RCCEx_PeriphCLKConfig+0x4c>
 8002ef2:	2280      	movs	r2, #128	@ 0x80
 8002ef4:	6a23      	ldr	r3, [r4, #32]
 8002ef6:	6a20      	ldr	r0, [r4, #32]
 8002ef8:	0019      	movs	r1, r3
 8002efa:	0252      	lsls	r2, r2, #9
 8002efc:	4302      	orrs	r2, r0
 8002efe:	6222      	str	r2, [r4, #32]
 8002f00:	6a22      	ldr	r2, [r4, #32]
 8002f02:	4812      	ldr	r0, [pc, #72]	@ (8002f4c <HAL_RCCEx_PeriphCLKConfig+0x104>)
 8002f04:	4031      	ands	r1, r6
 8002f06:	4002      	ands	r2, r0
 8002f08:	6222      	str	r2, [r4, #32]
 8002f0a:	6221      	str	r1, [r4, #32]
 8002f0c:	07db      	lsls	r3, r3, #31
 8002f0e:	d5c1      	bpl.n	8002e94 <HAL_RCCEx_PeriphCLKConfig+0x4c>
 8002f10:	f7fe fe1a 	bl	8001b48 <HAL_GetTick>
 8002f14:	0007      	movs	r7, r0
 8002f16:	2202      	movs	r2, #2
 8002f18:	6a23      	ldr	r3, [r4, #32]
 8002f1a:	4213      	tst	r3, r2
 8002f1c:	d1ba      	bne.n	8002e94 <HAL_RCCEx_PeriphCLKConfig+0x4c>
 8002f1e:	f7fe fe13 	bl	8001b48 <HAL_GetTick>
 8002f22:	4b0b      	ldr	r3, [pc, #44]	@ (8002f50 <HAL_RCCEx_PeriphCLKConfig+0x108>)
 8002f24:	1bc0      	subs	r0, r0, r7
 8002f26:	4298      	cmp	r0, r3
 8002f28:	d9f5      	bls.n	8002f16 <HAL_RCCEx_PeriphCLKConfig+0xce>
 8002f2a:	e7dc      	b.n	8002ee6 <HAL_RCCEx_PeriphCLKConfig+0x9e>
 8002f2c:	2110      	movs	r1, #16
 8002f2e:	4a03      	ldr	r2, [pc, #12]	@ (8002f3c <HAL_RCCEx_PeriphCLKConfig+0xf4>)
 8002f30:	6b13      	ldr	r3, [r2, #48]	@ 0x30
 8002f32:	438b      	bics	r3, r1
 8002f34:	68e9      	ldr	r1, [r5, #12]
 8002f36:	430b      	orrs	r3, r1
 8002f38:	6313      	str	r3, [r2, #48]	@ 0x30
 8002f3a:	e7c3      	b.n	8002ec4 <HAL_RCCEx_PeriphCLKConfig+0x7c>
 8002f3c:	40021000 	.word	0x40021000
 8002f40:	40007000 	.word	0x40007000
 8002f44:	fffffcff 	.word	0xfffffcff
 8002f48:	efffffff 	.word	0xefffffff
 8002f4c:	fffeffff 	.word	0xfffeffff
 8002f50:	00001388 	.word	0x00001388

08002f54 <HAL_TIM_Base_Start_IT>:
 8002f54:	0001      	movs	r1, r0
 8002f56:	0003      	movs	r3, r0
 8002f58:	2001      	movs	r0, #1
 8002f5a:	b510      	push	{r4, lr}
 8002f5c:	313d      	adds	r1, #61	@ 0x3d
 8002f5e:	780c      	ldrb	r4, [r1, #0]
 8002f60:	b2e2      	uxtb	r2, r4
 8002f62:	4284      	cmp	r4, r0
 8002f64:	d115      	bne.n	8002f92 <HAL_TIM_Base_Start_IT+0x3e>
 8002f66:	1800      	adds	r0, r0, r0
 8002f68:	7008      	strb	r0, [r1, #0]
 8002f6a:	681b      	ldr	r3, [r3, #0]
 8002f6c:	68d9      	ldr	r1, [r3, #12]
 8002f6e:	4311      	orrs	r1, r2
 8002f70:	60d9      	str	r1, [r3, #12]
 8002f72:	4909      	ldr	r1, [pc, #36]	@ (8002f98 <HAL_TIM_Base_Start_IT+0x44>)
 8002f74:	428b      	cmp	r3, r1
 8002f76:	d002      	beq.n	8002f7e <HAL_TIM_Base_Start_IT+0x2a>
 8002f78:	4908      	ldr	r1, [pc, #32]	@ (8002f9c <HAL_TIM_Base_Start_IT+0x48>)
 8002f7a:	428b      	cmp	r3, r1
 8002f7c:	d10a      	bne.n	8002f94 <HAL_TIM_Base_Start_IT+0x40>
 8002f7e:	2107      	movs	r1, #7
 8002f80:	689a      	ldr	r2, [r3, #8]
 8002f82:	400a      	ands	r2, r1
 8002f84:	2a06      	cmp	r2, #6
 8002f86:	d003      	beq.n	8002f90 <HAL_TIM_Base_Start_IT+0x3c>
 8002f88:	2201      	movs	r2, #1
 8002f8a:	6819      	ldr	r1, [r3, #0]
 8002f8c:	430a      	orrs	r2, r1
 8002f8e:	601a      	str	r2, [r3, #0]
 8002f90:	2000      	movs	r0, #0
 8002f92:	bd10      	pop	{r4, pc}
 8002f94:	6819      	ldr	r1, [r3, #0]
 8002f96:	e7f9      	b.n	8002f8c <HAL_TIM_Base_Start_IT+0x38>
 8002f98:	40012c00 	.word	0x40012c00
 8002f9c:	40000400 	.word	0x40000400

08002fa0 <HAL_TIM_OC_DelayElapsedCallback>:
 8002fa0:	4770      	bx	lr

08002fa2 <HAL_TIM_IC_CaptureCallback>:
 8002fa2:	4770      	bx	lr

08002fa4 <HAL_TIM_PWM_PulseFinishedCallback>:
 8002fa4:	4770      	bx	lr

08002fa6 <HAL_TIM_TriggerCallback>:
 8002fa6:	4770      	bx	lr

08002fa8 <HAL_TIM_IRQHandler>:
 8002fa8:	2202      	movs	r2, #2
 8002faa:	6803      	ldr	r3, [r0, #0]
 8002fac:	b510      	push	{r4, lr}
 8002fae:	6919      	ldr	r1, [r3, #16]
 8002fb0:	0004      	movs	r4, r0
 8002fb2:	4211      	tst	r1, r2
 8002fb4:	d00e      	beq.n	8002fd4 <HAL_TIM_IRQHandler+0x2c>
 8002fb6:	68d9      	ldr	r1, [r3, #12]
 8002fb8:	4211      	tst	r1, r2
 8002fba:	d00b      	beq.n	8002fd4 <HAL_TIM_IRQHandler+0x2c>
 8002fbc:	3a05      	subs	r2, #5
 8002fbe:	611a      	str	r2, [r3, #16]
 8002fc0:	3204      	adds	r2, #4
 8002fc2:	7702      	strb	r2, [r0, #28]
 8002fc4:	699b      	ldr	r3, [r3, #24]
 8002fc6:	079b      	lsls	r3, r3, #30
 8002fc8:	d100      	bne.n	8002fcc <HAL_TIM_IRQHandler+0x24>
 8002fca:	e079      	b.n	80030c0 <HAL_TIM_IRQHandler+0x118>
 8002fcc:	f7ff ffe9 	bl	8002fa2 <HAL_TIM_IC_CaptureCallback>
 8002fd0:	2300      	movs	r3, #0
 8002fd2:	7723      	strb	r3, [r4, #28]
 8002fd4:	2204      	movs	r2, #4
 8002fd6:	6823      	ldr	r3, [r4, #0]
 8002fd8:	6919      	ldr	r1, [r3, #16]
 8002fda:	4211      	tst	r1, r2
 8002fdc:	d010      	beq.n	8003000 <HAL_TIM_IRQHandler+0x58>
 8002fde:	68d9      	ldr	r1, [r3, #12]
 8002fe0:	4211      	tst	r1, r2
 8002fe2:	d00d      	beq.n	8003000 <HAL_TIM_IRQHandler+0x58>
 8002fe4:	3a09      	subs	r2, #9
 8002fe6:	611a      	str	r2, [r3, #16]
 8002fe8:	3207      	adds	r2, #7
 8002fea:	7722      	strb	r2, [r4, #28]
 8002fec:	699a      	ldr	r2, [r3, #24]
 8002fee:	23c0      	movs	r3, #192	@ 0xc0
 8002ff0:	009b      	lsls	r3, r3, #2
 8002ff2:	0020      	movs	r0, r4
 8002ff4:	421a      	tst	r2, r3
 8002ff6:	d069      	beq.n	80030cc <HAL_TIM_IRQHandler+0x124>
 8002ff8:	f7ff ffd3 	bl	8002fa2 <HAL_TIM_IC_CaptureCallback>
 8002ffc:	2300      	movs	r3, #0
 8002ffe:	7723      	strb	r3, [r4, #28]
 8003000:	2208      	movs	r2, #8
 8003002:	6823      	ldr	r3, [r4, #0]
 8003004:	6919      	ldr	r1, [r3, #16]
 8003006:	4211      	tst	r1, r2
 8003008:	d00e      	beq.n	8003028 <HAL_TIM_IRQHandler+0x80>
 800300a:	68d9      	ldr	r1, [r3, #12]
 800300c:	4211      	tst	r1, r2
 800300e:	d00b      	beq.n	8003028 <HAL_TIM_IRQHandler+0x80>
 8003010:	3a11      	subs	r2, #17
 8003012:	611a      	str	r2, [r3, #16]
 8003014:	320d      	adds	r2, #13
 8003016:	7722      	strb	r2, [r4, #28]
 8003018:	69db      	ldr	r3, [r3, #28]
 800301a:	0020      	movs	r0, r4
 800301c:	079b      	lsls	r3, r3, #30
 800301e:	d05b      	beq.n	80030d8 <HAL_TIM_IRQHandler+0x130>
 8003020:	f7ff ffbf 	bl	8002fa2 <HAL_TIM_IC_CaptureCallback>
 8003024:	2300      	movs	r3, #0
 8003026:	7723      	strb	r3, [r4, #28]
 8003028:	2210      	movs	r2, #16
 800302a:	6823      	ldr	r3, [r4, #0]
 800302c:	6919      	ldr	r1, [r3, #16]
 800302e:	4211      	tst	r1, r2
 8003030:	d010      	beq.n	8003054 <HAL_TIM_IRQHandler+0xac>
 8003032:	68d9      	ldr	r1, [r3, #12]
 8003034:	4211      	tst	r1, r2
 8003036:	d00d      	beq.n	8003054 <HAL_TIM_IRQHandler+0xac>
 8003038:	3a21      	subs	r2, #33	@ 0x21
 800303a:	611a      	str	r2, [r3, #16]
 800303c:	3219      	adds	r2, #25
 800303e:	7722      	strb	r2, [r4, #28]
 8003040:	69da      	ldr	r2, [r3, #28]
 8003042:	23c0      	movs	r3, #192	@ 0xc0
 8003044:	009b      	lsls	r3, r3, #2
 8003046:	0020      	movs	r0, r4
 8003048:	421a      	tst	r2, r3
 800304a:	d04b      	beq.n	80030e4 <HAL_TIM_IRQHandler+0x13c>
 800304c:	f7ff ffa9 	bl	8002fa2 <HAL_TIM_IC_CaptureCallback>
 8003050:	2300      	movs	r3, #0
 8003052:	7723      	strb	r3, [r4, #28]
 8003054:	2201      	movs	r2, #1
 8003056:	6823      	ldr	r3, [r4, #0]
 8003058:	6919      	ldr	r1, [r3, #16]
 800305a:	4211      	tst	r1, r2
 800305c:	d007      	beq.n	800306e <HAL_TIM_IRQHandler+0xc6>
 800305e:	68d9      	ldr	r1, [r3, #12]
 8003060:	4211      	tst	r1, r2
 8003062:	d004      	beq.n	800306e <HAL_TIM_IRQHandler+0xc6>
 8003064:	3a03      	subs	r2, #3
 8003066:	0020      	movs	r0, r4
 8003068:	611a      	str	r2, [r3, #16]
 800306a:	f7fe fa09 	bl	8001480 <HAL_TIM_PeriodElapsedCallback>
 800306e:	2280      	movs	r2, #128	@ 0x80
 8003070:	6823      	ldr	r3, [r4, #0]
 8003072:	6919      	ldr	r1, [r3, #16]
 8003074:	4211      	tst	r1, r2
 8003076:	d008      	beq.n	800308a <HAL_TIM_IRQHandler+0xe2>
 8003078:	68d9      	ldr	r1, [r3, #12]
 800307a:	4211      	tst	r1, r2
 800307c:	d005      	beq.n	800308a <HAL_TIM_IRQHandler+0xe2>
 800307e:	3a02      	subs	r2, #2
 8003080:	3aff      	subs	r2, #255	@ 0xff
 8003082:	0020      	movs	r0, r4
 8003084:	611a      	str	r2, [r3, #16]
 8003086:	f000 f960 	bl	800334a <HAL_TIMEx_BreakCallback>
 800308a:	2240      	movs	r2, #64	@ 0x40
 800308c:	6823      	ldr	r3, [r4, #0]
 800308e:	6919      	ldr	r1, [r3, #16]
 8003090:	4211      	tst	r1, r2
 8003092:	d007      	beq.n	80030a4 <HAL_TIM_IRQHandler+0xfc>
 8003094:	68d9      	ldr	r1, [r3, #12]
 8003096:	4211      	tst	r1, r2
 8003098:	d004      	beq.n	80030a4 <HAL_TIM_IRQHandler+0xfc>
 800309a:	3a81      	subs	r2, #129	@ 0x81
 800309c:	0020      	movs	r0, r4
 800309e:	611a      	str	r2, [r3, #16]
 80030a0:	f7ff ff81 	bl	8002fa6 <HAL_TIM_TriggerCallback>
 80030a4:	2220      	movs	r2, #32
 80030a6:	6823      	ldr	r3, [r4, #0]
 80030a8:	6919      	ldr	r1, [r3, #16]
 80030aa:	4211      	tst	r1, r2
 80030ac:	d007      	beq.n	80030be <HAL_TIM_IRQHandler+0x116>
 80030ae:	68d9      	ldr	r1, [r3, #12]
 80030b0:	4211      	tst	r1, r2
 80030b2:	d004      	beq.n	80030be <HAL_TIM_IRQHandler+0x116>
 80030b4:	3a41      	subs	r2, #65	@ 0x41
 80030b6:	0020      	movs	r0, r4
 80030b8:	611a      	str	r2, [r3, #16]
 80030ba:	f000 f945 	bl	8003348 <HAL_TIMEx_CommutCallback>
 80030be:	bd10      	pop	{r4, pc}
 80030c0:	f7ff ff6e 	bl	8002fa0 <HAL_TIM_OC_DelayElapsedCallback>
 80030c4:	0020      	movs	r0, r4
 80030c6:	f7ff ff6d 	bl	8002fa4 <HAL_TIM_PWM_PulseFinishedCallback>
 80030ca:	e781      	b.n	8002fd0 <HAL_TIM_IRQHandler+0x28>
 80030cc:	f7ff ff68 	bl	8002fa0 <HAL_TIM_OC_DelayElapsedCallback>
 80030d0:	0020      	movs	r0, r4
 80030d2:	f7ff ff67 	bl	8002fa4 <HAL_TIM_PWM_PulseFinishedCallback>
 80030d6:	e791      	b.n	8002ffc <HAL_TIM_IRQHandler+0x54>
 80030d8:	f7ff ff62 	bl	8002fa0 <HAL_TIM_OC_DelayElapsedCallback>
 80030dc:	0020      	movs	r0, r4
 80030de:	f7ff ff61 	bl	8002fa4 <HAL_TIM_PWM_PulseFinishedCallback>
 80030e2:	e79f      	b.n	8003024 <HAL_TIM_IRQHandler+0x7c>
 80030e4:	f7ff ff5c 	bl	8002fa0 <HAL_TIM_OC_DelayElapsedCallback>
 80030e8:	0020      	movs	r0, r4
 80030ea:	f7ff ff5b 	bl	8002fa4 <HAL_TIM_PWM_PulseFinishedCallback>
 80030ee:	e7af      	b.n	8003050 <HAL_TIM_IRQHandler+0xa8>

080030f0 <TIM_Base_SetConfig>:
 80030f0:	4a19      	ldr	r2, [pc, #100]	@ (8003158 <TIM_Base_SetConfig+0x68>)
 80030f2:	b510      	push	{r4, lr}
 80030f4:	6803      	ldr	r3, [r0, #0]
 80030f6:	4290      	cmp	r0, r2
 80030f8:	d002      	beq.n	8003100 <TIM_Base_SetConfig+0x10>
 80030fa:	4c18      	ldr	r4, [pc, #96]	@ (800315c <TIM_Base_SetConfig+0x6c>)
 80030fc:	42a0      	cmp	r0, r4
 80030fe:	d108      	bne.n	8003112 <TIM_Base_SetConfig+0x22>
 8003100:	2470      	movs	r4, #112	@ 0x70
 8003102:	43a3      	bics	r3, r4
 8003104:	684c      	ldr	r4, [r1, #4]
 8003106:	4323      	orrs	r3, r4
 8003108:	4290      	cmp	r0, r2
 800310a:	d00b      	beq.n	8003124 <TIM_Base_SetConfig+0x34>
 800310c:	4c13      	ldr	r4, [pc, #76]	@ (800315c <TIM_Base_SetConfig+0x6c>)
 800310e:	42a0      	cmp	r0, r4
 8003110:	d008      	beq.n	8003124 <TIM_Base_SetConfig+0x34>
 8003112:	4c13      	ldr	r4, [pc, #76]	@ (8003160 <TIM_Base_SetConfig+0x70>)
 8003114:	42a0      	cmp	r0, r4
 8003116:	d005      	beq.n	8003124 <TIM_Base_SetConfig+0x34>
 8003118:	4c12      	ldr	r4, [pc, #72]	@ (8003164 <TIM_Base_SetConfig+0x74>)
 800311a:	42a0      	cmp	r0, r4
 800311c:	d002      	beq.n	8003124 <TIM_Base_SetConfig+0x34>
 800311e:	4c12      	ldr	r4, [pc, #72]	@ (8003168 <TIM_Base_SetConfig+0x78>)
 8003120:	42a0      	cmp	r0, r4
 8003122:	d103      	bne.n	800312c <TIM_Base_SetConfig+0x3c>
 8003124:	4c11      	ldr	r4, [pc, #68]	@ (800316c <TIM_Base_SetConfig+0x7c>)
 8003126:	401c      	ands	r4, r3
 8003128:	68cb      	ldr	r3, [r1, #12]
 800312a:	4323      	orrs	r3, r4
 800312c:	2480      	movs	r4, #128	@ 0x80
 800312e:	43a3      	bics	r3, r4
 8003130:	694c      	ldr	r4, [r1, #20]
 8003132:	4323      	orrs	r3, r4
 8003134:	6003      	str	r3, [r0, #0]
 8003136:	688b      	ldr	r3, [r1, #8]
 8003138:	62c3      	str	r3, [r0, #44]	@ 0x2c
 800313a:	680b      	ldr	r3, [r1, #0]
 800313c:	6283      	str	r3, [r0, #40]	@ 0x28
 800313e:	4290      	cmp	r0, r2
 8003140:	d005      	beq.n	800314e <TIM_Base_SetConfig+0x5e>
 8003142:	4b08      	ldr	r3, [pc, #32]	@ (8003164 <TIM_Base_SetConfig+0x74>)
 8003144:	4298      	cmp	r0, r3
 8003146:	d002      	beq.n	800314e <TIM_Base_SetConfig+0x5e>
 8003148:	4b07      	ldr	r3, [pc, #28]	@ (8003168 <TIM_Base_SetConfig+0x78>)
 800314a:	4298      	cmp	r0, r3
 800314c:	d101      	bne.n	8003152 <TIM_Base_SetConfig+0x62>
 800314e:	690b      	ldr	r3, [r1, #16]
 8003150:	6303      	str	r3, [r0, #48]	@ 0x30
 8003152:	2301      	movs	r3, #1
 8003154:	6143      	str	r3, [r0, #20]
 8003156:	bd10      	pop	{r4, pc}
 8003158:	40012c00 	.word	0x40012c00
 800315c:	40000400 	.word	0x40000400
 8003160:	40002000 	.word	0x40002000
 8003164:	40014400 	.word	0x40014400
 8003168:	40014800 	.word	0x40014800
 800316c:	fffffcff 	.word	0xfffffcff

08003170 <HAL_TIM_Base_Init>:
 8003170:	b570      	push	{r4, r5, r6, lr}
 8003172:	0004      	movs	r4, r0
 8003174:	2001      	movs	r0, #1
 8003176:	2c00      	cmp	r4, #0
 8003178:	d021      	beq.n	80031be <HAL_TIM_Base_Init+0x4e>
 800317a:	0025      	movs	r5, r4
 800317c:	353d      	adds	r5, #61	@ 0x3d
 800317e:	782b      	ldrb	r3, [r5, #0]
 8003180:	b2da      	uxtb	r2, r3
 8003182:	2b00      	cmp	r3, #0
 8003184:	d105      	bne.n	8003192 <HAL_TIM_Base_Init+0x22>
 8003186:	0023      	movs	r3, r4
 8003188:	333c      	adds	r3, #60	@ 0x3c
 800318a:	0020      	movs	r0, r4
 800318c:	701a      	strb	r2, [r3, #0]
 800318e:	f7fe fbbd 	bl	800190c <HAL_TIM_Base_MspInit>
 8003192:	2302      	movs	r3, #2
 8003194:	702b      	strb	r3, [r5, #0]
 8003196:	6820      	ldr	r0, [r4, #0]
 8003198:	1d21      	adds	r1, r4, #4
 800319a:	f7ff ffa9 	bl	80030f0 <TIM_Base_SetConfig>
 800319e:	0022      	movs	r2, r4
 80031a0:	2301      	movs	r3, #1
 80031a2:	2000      	movs	r0, #0
 80031a4:	3246      	adds	r2, #70	@ 0x46
 80031a6:	7013      	strb	r3, [r2, #0]
 80031a8:	3445      	adds	r4, #69	@ 0x45
 80031aa:	3a08      	subs	r2, #8
 80031ac:	7013      	strb	r3, [r2, #0]
 80031ae:	7053      	strb	r3, [r2, #1]
 80031b0:	7093      	strb	r3, [r2, #2]
 80031b2:	70d3      	strb	r3, [r2, #3]
 80031b4:	7113      	strb	r3, [r2, #4]
 80031b6:	7153      	strb	r3, [r2, #5]
 80031b8:	7193      	strb	r3, [r2, #6]
 80031ba:	7023      	strb	r3, [r4, #0]
 80031bc:	702b      	strb	r3, [r5, #0]
 80031be:	bd70      	pop	{r4, r5, r6, pc}

080031c0 <TIM_ETR_SetConfig>:
 80031c0:	b530      	push	{r4, r5, lr}
 80031c2:	6884      	ldr	r4, [r0, #8]
 80031c4:	4d03      	ldr	r5, [pc, #12]	@ (80031d4 <TIM_ETR_SetConfig+0x14>)
 80031c6:	430a      	orrs	r2, r1
 80031c8:	021b      	lsls	r3, r3, #8
 80031ca:	402c      	ands	r4, r5
 80031cc:	4313      	orrs	r3, r2
 80031ce:	4323      	orrs	r3, r4
 80031d0:	6083      	str	r3, [r0, #8]
 80031d2:	bd30      	pop	{r4, r5, pc}
 80031d4:	ffff00ff 	.word	0xffff00ff

080031d8 <HAL_TIM_ConfigClockSource>:
 80031d8:	b5f8      	push	{r3, r4, r5, r6, r7, lr}
 80031da:	0005      	movs	r5, r0
 80031dc:	2202      	movs	r2, #2
 80031de:	353c      	adds	r5, #60	@ 0x3c
 80031e0:	782c      	ldrb	r4, [r5, #0]
 80031e2:	0003      	movs	r3, r0
 80031e4:	0010      	movs	r0, r2
 80031e6:	2c01      	cmp	r4, #1
 80031e8:	d023      	beq.n	8003232 <HAL_TIM_ConfigClockSource+0x5a>
 80031ea:	001e      	movs	r6, r3
 80031ec:	3801      	subs	r0, #1
 80031ee:	363d      	adds	r6, #61	@ 0x3d
 80031f0:	7028      	strb	r0, [r5, #0]
 80031f2:	7032      	strb	r2, [r6, #0]
 80031f4:	681c      	ldr	r4, [r3, #0]
 80031f6:	4a3e      	ldr	r2, [pc, #248]	@ (80032f0 <HAL_TIM_ConfigClockSource+0x118>)
 80031f8:	68a3      	ldr	r3, [r4, #8]
 80031fa:	4013      	ands	r3, r2
 80031fc:	60a3      	str	r3, [r4, #8]
 80031fe:	680b      	ldr	r3, [r1, #0]
 8003200:	2b60      	cmp	r3, #96	@ 0x60
 8003202:	d049      	beq.n	8003298 <HAL_TIM_ConfigClockSource+0xc0>
 8003204:	d82d      	bhi.n	8003262 <HAL_TIM_ConfigClockSource+0x8a>
 8003206:	2b40      	cmp	r3, #64	@ 0x40
 8003208:	d05d      	beq.n	80032c6 <HAL_TIM_ConfigClockSource+0xee>
 800320a:	d813      	bhi.n	8003234 <HAL_TIM_ConfigClockSource+0x5c>
 800320c:	2b20      	cmp	r3, #32
 800320e:	d004      	beq.n	800321a <HAL_TIM_ConfigClockSource+0x42>
 8003210:	d809      	bhi.n	8003226 <HAL_TIM_ConfigClockSource+0x4e>
 8003212:	2210      	movs	r2, #16
 8003214:	0019      	movs	r1, r3
 8003216:	4391      	bics	r1, r2
 8003218:	d107      	bne.n	800322a <HAL_TIM_ConfigClockSource+0x52>
 800321a:	2170      	movs	r1, #112	@ 0x70
 800321c:	68a2      	ldr	r2, [r4, #8]
 800321e:	438a      	bics	r2, r1
 8003220:	4313      	orrs	r3, r2
 8003222:	2207      	movs	r2, #7
 8003224:	e035      	b.n	8003292 <HAL_TIM_ConfigClockSource+0xba>
 8003226:	2b30      	cmp	r3, #48	@ 0x30
 8003228:	d0f7      	beq.n	800321a <HAL_TIM_ConfigClockSource+0x42>
 800322a:	2301      	movs	r3, #1
 800322c:	2000      	movs	r0, #0
 800322e:	7033      	strb	r3, [r6, #0]
 8003230:	7028      	strb	r0, [r5, #0]
 8003232:	bdf8      	pop	{r3, r4, r5, r6, r7, pc}
 8003234:	2b50      	cmp	r3, #80	@ 0x50
 8003236:	d1f8      	bne.n	800322a <HAL_TIM_ConfigClockSource+0x52>
 8003238:	684a      	ldr	r2, [r1, #4]
 800323a:	68cb      	ldr	r3, [r1, #12]
 800323c:	6a21      	ldr	r1, [r4, #32]
 800323e:	6a27      	ldr	r7, [r4, #32]
 8003240:	011b      	lsls	r3, r3, #4
 8003242:	4387      	bics	r7, r0
 8003244:	6227      	str	r7, [r4, #32]
 8003246:	27f0      	movs	r7, #240	@ 0xf0
 8003248:	69a0      	ldr	r0, [r4, #24]
 800324a:	43b8      	bics	r0, r7
 800324c:	4303      	orrs	r3, r0
 800324e:	200a      	movs	r0, #10
 8003250:	61a3      	str	r3, [r4, #24]
 8003252:	2370      	movs	r3, #112	@ 0x70
 8003254:	4381      	bics	r1, r0
 8003256:	430a      	orrs	r2, r1
 8003258:	6222      	str	r2, [r4, #32]
 800325a:	68a2      	ldr	r2, [r4, #8]
 800325c:	439a      	bics	r2, r3
 800325e:	3b19      	subs	r3, #25
 8003260:	e017      	b.n	8003292 <HAL_TIM_ConfigClockSource+0xba>
 8003262:	2b70      	cmp	r3, #112	@ 0x70
 8003264:	d00d      	beq.n	8003282 <HAL_TIM_ConfigClockSource+0xaa>
 8003266:	2280      	movs	r2, #128	@ 0x80
 8003268:	0192      	lsls	r2, r2, #6
 800326a:	4293      	cmp	r3, r2
 800326c:	d1dd      	bne.n	800322a <HAL_TIM_ConfigClockSource+0x52>
 800326e:	68cb      	ldr	r3, [r1, #12]
 8003270:	684a      	ldr	r2, [r1, #4]
 8003272:	0020      	movs	r0, r4
 8003274:	6889      	ldr	r1, [r1, #8]
 8003276:	f7ff ffa3 	bl	80031c0 <TIM_ETR_SetConfig>
 800327a:	2380      	movs	r3, #128	@ 0x80
 800327c:	68a2      	ldr	r2, [r4, #8]
 800327e:	01db      	lsls	r3, r3, #7
 8003280:	e007      	b.n	8003292 <HAL_TIM_ConfigClockSource+0xba>
 8003282:	68cb      	ldr	r3, [r1, #12]
 8003284:	684a      	ldr	r2, [r1, #4]
 8003286:	0020      	movs	r0, r4
 8003288:	6889      	ldr	r1, [r1, #8]
 800328a:	f7ff ff99 	bl	80031c0 <TIM_ETR_SetConfig>
 800328e:	2377      	movs	r3, #119	@ 0x77
 8003290:	68a2      	ldr	r2, [r4, #8]
 8003292:	4313      	orrs	r3, r2
 8003294:	60a3      	str	r3, [r4, #8]
 8003296:	e7c8      	b.n	800322a <HAL_TIM_ConfigClockSource+0x52>
 8003298:	2010      	movs	r0, #16
 800329a:	684b      	ldr	r3, [r1, #4]
 800329c:	68ca      	ldr	r2, [r1, #12]
 800329e:	6a21      	ldr	r1, [r4, #32]
 80032a0:	4f14      	ldr	r7, [pc, #80]	@ (80032f4 <HAL_TIM_ConfigClockSource+0x11c>)
 80032a2:	4381      	bics	r1, r0
 80032a4:	6221      	str	r1, [r4, #32]
 80032a6:	69a0      	ldr	r0, [r4, #24]
 80032a8:	0312      	lsls	r2, r2, #12
 80032aa:	4038      	ands	r0, r7
 80032ac:	4302      	orrs	r2, r0
 80032ae:	20a0      	movs	r0, #160	@ 0xa0
 80032b0:	6a21      	ldr	r1, [r4, #32]
 80032b2:	011b      	lsls	r3, r3, #4
 80032b4:	4381      	bics	r1, r0
 80032b6:	430b      	orrs	r3, r1
 80032b8:	61a2      	str	r2, [r4, #24]
 80032ba:	6223      	str	r3, [r4, #32]
 80032bc:	2370      	movs	r3, #112	@ 0x70
 80032be:	68a2      	ldr	r2, [r4, #8]
 80032c0:	439a      	bics	r2, r3
 80032c2:	3b09      	subs	r3, #9
 80032c4:	e7e5      	b.n	8003292 <HAL_TIM_ConfigClockSource+0xba>
 80032c6:	684a      	ldr	r2, [r1, #4]
 80032c8:	68cb      	ldr	r3, [r1, #12]
 80032ca:	6a21      	ldr	r1, [r4, #32]
 80032cc:	6a27      	ldr	r7, [r4, #32]
 80032ce:	011b      	lsls	r3, r3, #4
 80032d0:	4387      	bics	r7, r0
 80032d2:	6227      	str	r7, [r4, #32]
 80032d4:	27f0      	movs	r7, #240	@ 0xf0
 80032d6:	69a0      	ldr	r0, [r4, #24]
 80032d8:	43b8      	bics	r0, r7
 80032da:	4303      	orrs	r3, r0
 80032dc:	200a      	movs	r0, #10
 80032de:	61a3      	str	r3, [r4, #24]
 80032e0:	2370      	movs	r3, #112	@ 0x70
 80032e2:	4381      	bics	r1, r0
 80032e4:	430a      	orrs	r2, r1
 80032e6:	6222      	str	r2, [r4, #32]
 80032e8:	68a2      	ldr	r2, [r4, #8]
 80032ea:	439a      	bics	r2, r3
 80032ec:	3b29      	subs	r3, #41	@ 0x29
 80032ee:	e7d0      	b.n	8003292 <HAL_TIM_ConfigClockSource+0xba>
 80032f0:	ffff0088 	.word	0xffff0088
 80032f4:	ffff0fff 	.word	0xffff0fff

080032f8 <HAL_TIMEx_MasterConfigSynchronization>:
 80032f8:	b570      	push	{r4, r5, r6, lr}
 80032fa:	0004      	movs	r4, r0
 80032fc:	2202      	movs	r2, #2
 80032fe:	343c      	adds	r4, #60	@ 0x3c
 8003300:	7825      	ldrb	r5, [r4, #0]
 8003302:	0003      	movs	r3, r0
 8003304:	0010      	movs	r0, r2
 8003306:	2d01      	cmp	r5, #1
 8003308:	d019      	beq.n	800333e <HAL_TIMEx_MasterConfigSynchronization+0x46>
 800330a:	001d      	movs	r5, r3
 800330c:	2670      	movs	r6, #112	@ 0x70
 800330e:	353d      	adds	r5, #61	@ 0x3d
 8003310:	702a      	strb	r2, [r5, #0]
 8003312:	681b      	ldr	r3, [r3, #0]
 8003314:	6858      	ldr	r0, [r3, #4]
 8003316:	689a      	ldr	r2, [r3, #8]
 8003318:	43b0      	bics	r0, r6
 800331a:	680e      	ldr	r6, [r1, #0]
 800331c:	4330      	orrs	r0, r6
 800331e:	6058      	str	r0, [r3, #4]
 8003320:	4807      	ldr	r0, [pc, #28]	@ (8003340 <HAL_TIMEx_MasterConfigSynchronization+0x48>)
 8003322:	4283      	cmp	r3, r0
 8003324:	d002      	beq.n	800332c <HAL_TIMEx_MasterConfigSynchronization+0x34>
 8003326:	4807      	ldr	r0, [pc, #28]	@ (8003344 <HAL_TIMEx_MasterConfigSynchronization+0x4c>)
 8003328:	4283      	cmp	r3, r0
 800332a:	d104      	bne.n	8003336 <HAL_TIMEx_MasterConfigSynchronization+0x3e>
 800332c:	2080      	movs	r0, #128	@ 0x80
 800332e:	6849      	ldr	r1, [r1, #4]
 8003330:	4382      	bics	r2, r0
 8003332:	430a      	orrs	r2, r1
 8003334:	609a      	str	r2, [r3, #8]
 8003336:	2301      	movs	r3, #1
 8003338:	2000      	movs	r0, #0
 800333a:	702b      	strb	r3, [r5, #0]
 800333c:	7020      	strb	r0, [r4, #0]
 800333e:	bd70      	pop	{r4, r5, r6, pc}
 8003340:	40012c00 	.word	0x40012c00
 8003344:	40000400 	.word	0x40000400

08003348 <HAL_TIMEx_CommutCallback>:
 8003348:	4770      	bx	lr

0800334a <HAL_TIMEx_BreakCallback>:
 800334a:	4770      	bx	lr

0800334c <UART_EndRxTransfer>:
 800334c:	6803      	ldr	r3, [r0, #0]
 800334e:	490b      	ldr	r1, [pc, #44]	@ (800337c <UART_EndRxTransfer+0x30>)
 8003350:	681a      	ldr	r2, [r3, #0]
 8003352:	400a      	ands	r2, r1
 8003354:	601a      	str	r2, [r3, #0]
 8003356:	689a      	ldr	r2, [r3, #8]
 8003358:	3123      	adds	r1, #35	@ 0x23
 800335a:	31ff      	adds	r1, #255	@ 0xff
 800335c:	438a      	bics	r2, r1
 800335e:	609a      	str	r2, [r3, #8]
 8003360:	6e02      	ldr	r2, [r0, #96]	@ 0x60
 8003362:	428a      	cmp	r2, r1
 8003364:	d103      	bne.n	800336e <UART_EndRxTransfer+0x22>
 8003366:	681a      	ldr	r2, [r3, #0]
 8003368:	310f      	adds	r1, #15
 800336a:	438a      	bics	r2, r1
 800336c:	601a      	str	r2, [r3, #0]
 800336e:	2320      	movs	r3, #32
 8003370:	67c3      	str	r3, [r0, #124]	@ 0x7c
 8003372:	2300      	movs	r3, #0
 8003374:	6603      	str	r3, [r0, #96]	@ 0x60
 8003376:	6643      	str	r3, [r0, #100]	@ 0x64
 8003378:	4770      	bx	lr
 800337a:	46c0      	nop			@ (mov r8, r8)
 800337c:	fffffedf 	.word	0xfffffedf

08003380 <HAL_UART_Transmit_DMA>:
 8003380:	b5f7      	push	{r0, r1, r2, r4, r5, r6, r7, lr}
 8003382:	0013      	movs	r3, r2
 8003384:	6f82      	ldr	r2, [r0, #120]	@ 0x78
 8003386:	0004      	movs	r4, r0
 8003388:	2002      	movs	r0, #2
 800338a:	2a20      	cmp	r2, #32
 800338c:	d104      	bne.n	8003398 <HAL_UART_Transmit_DMA+0x18>
 800338e:	2900      	cmp	r1, #0
 8003390:	d001      	beq.n	8003396 <HAL_UART_Transmit_DMA+0x16>
 8003392:	2b00      	cmp	r3, #0
 8003394:	d101      	bne.n	800339a <HAL_UART_Transmit_DMA+0x1a>
 8003396:	2001      	movs	r0, #1
 8003398:	bdfe      	pop	{r1, r2, r3, r4, r5, r6, r7, pc}
 800339a:	2280      	movs	r2, #128	@ 0x80
 800339c:	68a0      	ldr	r0, [r4, #8]
 800339e:	0152      	lsls	r2, r2, #5
 80033a0:	4290      	cmp	r0, r2
 80033a2:	d104      	bne.n	80033ae <HAL_UART_Transmit_DMA+0x2e>
 80033a4:	6922      	ldr	r2, [r4, #16]
 80033a6:	2a00      	cmp	r2, #0
 80033a8:	d101      	bne.n	80033ae <HAL_UART_Transmit_DMA+0x2e>
 80033aa:	07ca      	lsls	r2, r1, #31
 80033ac:	d4f3      	bmi.n	8003396 <HAL_UART_Transmit_DMA+0x16>
 80033ae:	0025      	movs	r5, r4
 80033b0:	3574      	adds	r5, #116	@ 0x74
 80033b2:	782a      	ldrb	r2, [r5, #0]
 80033b4:	2002      	movs	r0, #2
 80033b6:	2a01      	cmp	r2, #1
 80033b8:	d0ee      	beq.n	8003398 <HAL_UART_Transmit_DMA+0x18>
 80033ba:	2201      	movs	r2, #1
 80033bc:	702a      	strb	r2, [r5, #0]
 80033be:	0022      	movs	r2, r4
 80033c0:	3250      	adds	r2, #80	@ 0x50
 80033c2:	64e1      	str	r1, [r4, #76]	@ 0x4c
 80033c4:	2600      	movs	r6, #0
 80033c6:	8013      	strh	r3, [r2, #0]
 80033c8:	8053      	strh	r3, [r2, #2]
 80033ca:	2221      	movs	r2, #33	@ 0x21
 80033cc:	1d27      	adds	r7, r4, #4
 80033ce:	67fe      	str	r6, [r7, #124]	@ 0x7c
 80033d0:	6ee0      	ldr	r0, [r4, #108]	@ 0x6c
 80033d2:	67a2      	str	r2, [r4, #120]	@ 0x78
 80033d4:	6822      	ldr	r2, [r4, #0]
 80033d6:	9201      	str	r2, [sp, #4]
 80033d8:	42b0      	cmp	r0, r6
 80033da:	d012      	beq.n	8003402 <HAL_UART_Transmit_DMA+0x82>
 80033dc:	4a0e      	ldr	r2, [pc, #56]	@ (8003418 <HAL_UART_Transmit_DMA+0x98>)
 80033de:	6346      	str	r6, [r0, #52]	@ 0x34
 80033e0:	6282      	str	r2, [r0, #40]	@ 0x28
 80033e2:	4a0e      	ldr	r2, [pc, #56]	@ (800341c <HAL_UART_Transmit_DMA+0x9c>)
 80033e4:	62c2      	str	r2, [r0, #44]	@ 0x2c
 80033e6:	4a0e      	ldr	r2, [pc, #56]	@ (8003420 <HAL_UART_Transmit_DMA+0xa0>)
 80033e8:	6302      	str	r2, [r0, #48]	@ 0x30
 80033ea:	9a01      	ldr	r2, [sp, #4]
 80033ec:	3228      	adds	r2, #40	@ 0x28
 80033ee:	f7fe ff8d 	bl	800230c <HAL_DMA_Start_IT>
 80033f2:	42b0      	cmp	r0, r6
 80033f4:	d005      	beq.n	8003402 <HAL_UART_Transmit_DMA+0x82>
 80033f6:	2310      	movs	r3, #16
 80033f8:	67fb      	str	r3, [r7, #124]	@ 0x7c
 80033fa:	18db      	adds	r3, r3, r3
 80033fc:	702e      	strb	r6, [r5, #0]
 80033fe:	67a3      	str	r3, [r4, #120]	@ 0x78
 8003400:	e7c9      	b.n	8003396 <HAL_UART_Transmit_DMA+0x16>
 8003402:	2240      	movs	r2, #64	@ 0x40
 8003404:	2000      	movs	r0, #0
 8003406:	6823      	ldr	r3, [r4, #0]
 8003408:	3474      	adds	r4, #116	@ 0x74
 800340a:	621a      	str	r2, [r3, #32]
 800340c:	7020      	strb	r0, [r4, #0]
 800340e:	6899      	ldr	r1, [r3, #8]
 8003410:	1892      	adds	r2, r2, r2
 8003412:	430a      	orrs	r2, r1
 8003414:	609a      	str	r2, [r3, #8]
 8003416:	e7bf      	b.n	8003398 <HAL_UART_Transmit_DMA+0x18>
 8003418:	08003427 	.word	0x08003427
 800341c:	08003457 	.word	0x08003457
 8003420:	08003463 	.word	0x08003463

08003424 <HAL_UART_TxCpltCallback>:
 8003424:	4770      	bx	lr

08003426 <UART_DMATransmitCplt>:
 8003426:	0003      	movs	r3, r0
 8003428:	699b      	ldr	r3, [r3, #24]
 800342a:	b510      	push	{r4, lr}
 800342c:	6a40      	ldr	r0, [r0, #36]	@ 0x24
 800342e:	2b20      	cmp	r3, #32
 8003430:	d00d      	beq.n	800344e <UART_DMATransmitCplt+0x28>
 8003432:	0003      	movs	r3, r0
 8003434:	2200      	movs	r2, #0
 8003436:	2180      	movs	r1, #128	@ 0x80
 8003438:	3352      	adds	r3, #82	@ 0x52
 800343a:	801a      	strh	r2, [r3, #0]
 800343c:	6803      	ldr	r3, [r0, #0]
 800343e:	689a      	ldr	r2, [r3, #8]
 8003440:	438a      	bics	r2, r1
 8003442:	609a      	str	r2, [r3, #8]
 8003444:	2240      	movs	r2, #64	@ 0x40
 8003446:	6819      	ldr	r1, [r3, #0]
 8003448:	430a      	orrs	r2, r1
 800344a:	601a      	str	r2, [r3, #0]
 800344c:	bd10      	pop	{r4, pc}
 800344e:	f7ff ffe9 	bl	8003424 <HAL_UART_TxCpltCallback>
 8003452:	e7fb      	b.n	800344c <UART_DMATransmitCplt+0x26>

08003454 <HAL_UART_TxHalfCpltCallback>:
 8003454:	4770      	bx	lr

08003456 <UART_DMATxHalfCplt>:
 8003456:	b510      	push	{r4, lr}
 8003458:	6a40      	ldr	r0, [r0, #36]	@ 0x24
 800345a:	f7ff fffb 	bl	8003454 <HAL_UART_TxHalfCpltCallback>
 800345e:	bd10      	pop	{r4, pc}

08003460 <HAL_UART_ErrorCallback>:
 8003460:	4770      	bx	lr

08003462 <UART_DMAError>:
 8003462:	b510      	push	{r4, lr}
 8003464:	6a44      	ldr	r4, [r0, #36]	@ 0x24
 8003466:	6823      	ldr	r3, [r4, #0]
 8003468:	6fa0      	ldr	r0, [r4, #120]	@ 0x78
 800346a:	6fe1      	ldr	r1, [r4, #124]	@ 0x7c
 800346c:	689a      	ldr	r2, [r3, #8]
 800346e:	0612      	lsls	r2, r2, #24
 8003470:	d50b      	bpl.n	800348a <UART_DMAError+0x28>
 8003472:	2821      	cmp	r0, #33	@ 0x21
 8003474:	d109      	bne.n	800348a <UART_DMAError+0x28>
 8003476:	0022      	movs	r2, r4
 8003478:	2000      	movs	r0, #0
 800347a:	3252      	adds	r2, #82	@ 0x52
 800347c:	8010      	strh	r0, [r2, #0]
 800347e:	681a      	ldr	r2, [r3, #0]
 8003480:	30c0      	adds	r0, #192	@ 0xc0
 8003482:	4382      	bics	r2, r0
 8003484:	601a      	str	r2, [r3, #0]
 8003486:	2220      	movs	r2, #32
 8003488:	67a2      	str	r2, [r4, #120]	@ 0x78
 800348a:	689b      	ldr	r3, [r3, #8]
 800348c:	065b      	lsls	r3, r3, #25
 800348e:	d508      	bpl.n	80034a2 <UART_DMAError+0x40>
 8003490:	2922      	cmp	r1, #34	@ 0x22
 8003492:	d106      	bne.n	80034a2 <UART_DMAError+0x40>
 8003494:	0023      	movs	r3, r4
 8003496:	2200      	movs	r2, #0
 8003498:	335a      	adds	r3, #90	@ 0x5a
 800349a:	0020      	movs	r0, r4
 800349c:	801a      	strh	r2, [r3, #0]
 800349e:	f7ff ff55 	bl	800334c <UART_EndRxTransfer>
 80034a2:	2310      	movs	r3, #16
 80034a4:	1d22      	adds	r2, r4, #4
 80034a6:	6fd1      	ldr	r1, [r2, #124]	@ 0x7c
 80034a8:	0020      	movs	r0, r4
 80034aa:	430b      	orrs	r3, r1
 80034ac:	67d3      	str	r3, [r2, #124]	@ 0x7c
 80034ae:	f7ff ffd7 	bl	8003460 <HAL_UART_ErrorCallback>
 80034b2:	bd10      	pop	{r4, pc}

080034b4 <UART_DMAAbortOnError>:
 80034b4:	6a40      	ldr	r0, [r0, #36]	@ 0x24
 80034b6:	2300      	movs	r3, #0
 80034b8:	0002      	movs	r2, r0
 80034ba:	b510      	push	{r4, lr}
 80034bc:	325a      	adds	r2, #90	@ 0x5a
 80034be:	8013      	strh	r3, [r2, #0]
 80034c0:	3a08      	subs	r2, #8
 80034c2:	8013      	strh	r3, [r2, #0]
 80034c4:	f7ff ffcc 	bl	8003460 <HAL_UART_ErrorCallback>
 80034c8:	bd10      	pop	{r4, pc}

080034ca <HAL_UARTEx_RxEventCallback>:
 80034ca:	4770      	bx	lr

080034cc <HAL_UART_IRQHandler>:
 80034cc:	b5f8      	push	{r3, r4, r5, r6, r7, lr}
 80034ce:	6803      	ldr	r3, [r0, #0]
 80034d0:	4d7b      	ldr	r5, [pc, #492]	@ (80036c0 <HAL_UART_IRQHandler+0x1f4>)
 80034d2:	69da      	ldr	r2, [r3, #28]
 80034d4:	0004      	movs	r4, r0
 80034d6:	6819      	ldr	r1, [r3, #0]
 80034d8:	6898      	ldr	r0, [r3, #8]
 80034da:	422a      	tst	r2, r5
 80034dc:	d10b      	bne.n	80034f6 <HAL_UART_IRQHandler+0x2a>
 80034de:	2020      	movs	r0, #32
 80034e0:	4202      	tst	r2, r0
 80034e2:	d100      	bne.n	80034e6 <HAL_UART_IRQHandler+0x1a>
 80034e4:	e075      	b.n	80035d2 <HAL_UART_IRQHandler+0x106>
 80034e6:	4201      	tst	r1, r0
 80034e8:	d100      	bne.n	80034ec <HAL_UART_IRQHandler+0x20>
 80034ea:	e072      	b.n	80035d2 <HAL_UART_IRQHandler+0x106>
 80034ec:	6e63      	ldr	r3, [r4, #100]	@ 0x64
 80034ee:	0020      	movs	r0, r4
 80034f0:	2b00      	cmp	r3, #0
 80034f2:	d164      	bne.n	80035be <HAL_UART_IRQHandler+0xf2>
 80034f4:	e064      	b.n	80035c0 <HAL_UART_IRQHandler+0xf4>
 80034f6:	2601      	movs	r6, #1
 80034f8:	4d72      	ldr	r5, [pc, #456]	@ (80036c4 <HAL_UART_IRQHandler+0x1f8>)
 80034fa:	4030      	ands	r0, r6
 80034fc:	400d      	ands	r5, r1
 80034fe:	4305      	orrs	r5, r0
 8003500:	d067      	beq.n	80035d2 <HAL_UART_IRQHandler+0x106>
 8003502:	1d25      	adds	r5, r4, #4
 8003504:	4232      	tst	r2, r6
 8003506:	d005      	beq.n	8003514 <HAL_UART_IRQHandler+0x48>
 8003508:	05cf      	lsls	r7, r1, #23
 800350a:	d503      	bpl.n	8003514 <HAL_UART_IRQHandler+0x48>
 800350c:	621e      	str	r6, [r3, #32]
 800350e:	6fef      	ldr	r7, [r5, #124]	@ 0x7c
 8003510:	433e      	orrs	r6, r7
 8003512:	67ee      	str	r6, [r5, #124]	@ 0x7c
 8003514:	2602      	movs	r6, #2
 8003516:	4232      	tst	r2, r6
 8003518:	d006      	beq.n	8003528 <HAL_UART_IRQHandler+0x5c>
 800351a:	2800      	cmp	r0, #0
 800351c:	d004      	beq.n	8003528 <HAL_UART_IRQHandler+0x5c>
 800351e:	621e      	str	r6, [r3, #32]
 8003520:	6fef      	ldr	r7, [r5, #124]	@ 0x7c
 8003522:	19b6      	adds	r6, r6, r6
 8003524:	433e      	orrs	r6, r7
 8003526:	67ee      	str	r6, [r5, #124]	@ 0x7c
 8003528:	2604      	movs	r6, #4
 800352a:	4232      	tst	r2, r6
 800352c:	d006      	beq.n	800353c <HAL_UART_IRQHandler+0x70>
 800352e:	2800      	cmp	r0, #0
 8003530:	d004      	beq.n	800353c <HAL_UART_IRQHandler+0x70>
 8003532:	621e      	str	r6, [r3, #32]
 8003534:	6fef      	ldr	r7, [r5, #124]	@ 0x7c
 8003536:	3e02      	subs	r6, #2
 8003538:	433e      	orrs	r6, r7
 800353a:	67ee      	str	r6, [r5, #124]	@ 0x7c
 800353c:	2608      	movs	r6, #8
 800353e:	4232      	tst	r2, r6
 8003540:	d007      	beq.n	8003552 <HAL_UART_IRQHandler+0x86>
 8003542:	2720      	movs	r7, #32
 8003544:	400f      	ands	r7, r1
 8003546:	4338      	orrs	r0, r7
 8003548:	d003      	beq.n	8003552 <HAL_UART_IRQHandler+0x86>
 800354a:	621e      	str	r6, [r3, #32]
 800354c:	6fe8      	ldr	r0, [r5, #124]	@ 0x7c
 800354e:	4306      	orrs	r6, r0
 8003550:	67ee      	str	r6, [r5, #124]	@ 0x7c
 8003552:	2080      	movs	r0, #128	@ 0x80
 8003554:	0100      	lsls	r0, r0, #4
 8003556:	4202      	tst	r2, r0
 8003558:	d006      	beq.n	8003568 <HAL_UART_IRQHandler+0x9c>
 800355a:	014e      	lsls	r6, r1, #5
 800355c:	d504      	bpl.n	8003568 <HAL_UART_IRQHandler+0x9c>
 800355e:	6218      	str	r0, [r3, #32]
 8003560:	2320      	movs	r3, #32
 8003562:	6fe8      	ldr	r0, [r5, #124]	@ 0x7c
 8003564:	4303      	orrs	r3, r0
 8003566:	67eb      	str	r3, [r5, #124]	@ 0x7c
 8003568:	6feb      	ldr	r3, [r5, #124]	@ 0x7c
 800356a:	2b00      	cmp	r3, #0
 800356c:	d028      	beq.n	80035c0 <HAL_UART_IRQHandler+0xf4>
 800356e:	2320      	movs	r3, #32
 8003570:	421a      	tst	r2, r3
 8003572:	d006      	beq.n	8003582 <HAL_UART_IRQHandler+0xb6>
 8003574:	4219      	tst	r1, r3
 8003576:	d004      	beq.n	8003582 <HAL_UART_IRQHandler+0xb6>
 8003578:	6e63      	ldr	r3, [r4, #100]	@ 0x64
 800357a:	2b00      	cmp	r3, #0
 800357c:	d001      	beq.n	8003582 <HAL_UART_IRQHandler+0xb6>
 800357e:	0020      	movs	r0, r4
 8003580:	4798      	blx	r3
 8003582:	2240      	movs	r2, #64	@ 0x40
 8003584:	6827      	ldr	r7, [r4, #0]
 8003586:	6feb      	ldr	r3, [r5, #124]	@ 0x7c
 8003588:	68be      	ldr	r6, [r7, #8]
 800358a:	0020      	movs	r0, r4
 800358c:	4016      	ands	r6, r2
 800358e:	3a18      	subs	r2, #24
 8003590:	4013      	ands	r3, r2
 8003592:	431e      	orrs	r6, r3
 8003594:	d019      	beq.n	80035ca <HAL_UART_IRQHandler+0xfe>
 8003596:	f7ff fed9 	bl	800334c <UART_EndRxTransfer>
 800359a:	2240      	movs	r2, #64	@ 0x40
 800359c:	68bb      	ldr	r3, [r7, #8]
 800359e:	4213      	tst	r3, r2
 80035a0:	d00f      	beq.n	80035c2 <HAL_UART_IRQHandler+0xf6>
 80035a2:	68bb      	ldr	r3, [r7, #8]
 80035a4:	6f20      	ldr	r0, [r4, #112]	@ 0x70
 80035a6:	4393      	bics	r3, r2
 80035a8:	60bb      	str	r3, [r7, #8]
 80035aa:	2800      	cmp	r0, #0
 80035ac:	d009      	beq.n	80035c2 <HAL_UART_IRQHandler+0xf6>
 80035ae:	4b46      	ldr	r3, [pc, #280]	@ (80036c8 <HAL_UART_IRQHandler+0x1fc>)
 80035b0:	6343      	str	r3, [r0, #52]	@ 0x34
 80035b2:	f7fe ff05 	bl	80023c0 <HAL_DMA_Abort_IT>
 80035b6:	2800      	cmp	r0, #0
 80035b8:	d002      	beq.n	80035c0 <HAL_UART_IRQHandler+0xf4>
 80035ba:	6f20      	ldr	r0, [r4, #112]	@ 0x70
 80035bc:	6b43      	ldr	r3, [r0, #52]	@ 0x34
 80035be:	4798      	blx	r3
 80035c0:	bdf8      	pop	{r3, r4, r5, r6, r7, pc}
 80035c2:	0020      	movs	r0, r4
 80035c4:	f7ff ff4c 	bl	8003460 <HAL_UART_ErrorCallback>
 80035c8:	e7fa      	b.n	80035c0 <HAL_UART_IRQHandler+0xf4>
 80035ca:	f7ff ff49 	bl	8003460 <HAL_UART_ErrorCallback>
 80035ce:	67ee      	str	r6, [r5, #124]	@ 0x7c
 80035d0:	e7f6      	b.n	80035c0 <HAL_UART_IRQHandler+0xf4>
 80035d2:	6e27      	ldr	r7, [r4, #96]	@ 0x60
 80035d4:	2f01      	cmp	r7, #1
 80035d6:	d15a      	bne.n	800368e <HAL_UART_IRQHandler+0x1c2>
 80035d8:	2510      	movs	r5, #16
 80035da:	422a      	tst	r2, r5
 80035dc:	d057      	beq.n	800368e <HAL_UART_IRQHandler+0x1c2>
 80035de:	4229      	tst	r1, r5
 80035e0:	d055      	beq.n	800368e <HAL_UART_IRQHandler+0x1c2>
 80035e2:	621d      	str	r5, [r3, #32]
 80035e4:	689a      	ldr	r2, [r3, #8]
 80035e6:	2140      	movs	r1, #64	@ 0x40
 80035e8:	0010      	movs	r0, r2
 80035ea:	4008      	ands	r0, r1
 80035ec:	420a      	tst	r2, r1
 80035ee:	d031      	beq.n	8003654 <HAL_UART_IRQHandler+0x188>
 80035f0:	6f20      	ldr	r0, [r4, #112]	@ 0x70
 80035f2:	6802      	ldr	r2, [r0, #0]
 80035f4:	6852      	ldr	r2, [r2, #4]
 80035f6:	b292      	uxth	r2, r2
 80035f8:	2a00      	cmp	r2, #0
 80035fa:	d0e1      	beq.n	80035c0 <HAL_UART_IRQHandler+0xf4>
 80035fc:	0026      	movs	r6, r4
 80035fe:	3658      	adds	r6, #88	@ 0x58
 8003600:	8831      	ldrh	r1, [r6, #0]
 8003602:	4291      	cmp	r1, r2
 8003604:	d9dc      	bls.n	80035c0 <HAL_UART_IRQHandler+0xf4>
 8003606:	215a      	movs	r1, #90	@ 0x5a
 8003608:	468c      	mov	ip, r1
 800360a:	44a4      	add	ip, r4
 800360c:	4661      	mov	r1, ip
 800360e:	800a      	strh	r2, [r1, #0]
 8003610:	6982      	ldr	r2, [r0, #24]
 8003612:	2a20      	cmp	r2, #32
 8003614:	d014      	beq.n	8003640 <HAL_UART_IRQHandler+0x174>
 8003616:	681a      	ldr	r2, [r3, #0]
 8003618:	492c      	ldr	r1, [pc, #176]	@ (80036cc <HAL_UART_IRQHandler+0x200>)
 800361a:	400a      	ands	r2, r1
 800361c:	601a      	str	r2, [r3, #0]
 800361e:	689a      	ldr	r2, [r3, #8]
 8003620:	3142      	adds	r1, #66	@ 0x42
 8003622:	43ba      	bics	r2, r7
 8003624:	609a      	str	r2, [r3, #8]
 8003626:	689a      	ldr	r2, [r3, #8]
 8003628:	31ff      	adds	r1, #255	@ 0xff
 800362a:	438a      	bics	r2, r1
 800362c:	609a      	str	r2, [r3, #8]
 800362e:	2220      	movs	r2, #32
 8003630:	67e2      	str	r2, [r4, #124]	@ 0x7c
 8003632:	2200      	movs	r2, #0
 8003634:	6622      	str	r2, [r4, #96]	@ 0x60
 8003636:	681a      	ldr	r2, [r3, #0]
 8003638:	43aa      	bics	r2, r5
 800363a:	601a      	str	r2, [r3, #0]
 800363c:	f7fe fea2 	bl	8002384 <HAL_DMA_Abort>
 8003640:	0023      	movs	r3, r4
 8003642:	335a      	adds	r3, #90	@ 0x5a
 8003644:	881b      	ldrh	r3, [r3, #0]
 8003646:	8831      	ldrh	r1, [r6, #0]
 8003648:	1ac9      	subs	r1, r1, r3
 800364a:	b289      	uxth	r1, r1
 800364c:	0020      	movs	r0, r4
 800364e:	f7ff ff3c 	bl	80034ca <HAL_UARTEx_RxEventCallback>
 8003652:	e7b5      	b.n	80035c0 <HAL_UART_IRQHandler+0xf4>
 8003654:	0022      	movs	r2, r4
 8003656:	0026      	movs	r6, r4
 8003658:	3258      	adds	r2, #88	@ 0x58
 800365a:	365a      	adds	r6, #90	@ 0x5a
 800365c:	8811      	ldrh	r1, [r2, #0]
 800365e:	8832      	ldrh	r2, [r6, #0]
 8003660:	8836      	ldrh	r6, [r6, #0]
 8003662:	b292      	uxth	r2, r2
 8003664:	2e00      	cmp	r6, #0
 8003666:	d0ab      	beq.n	80035c0 <HAL_UART_IRQHandler+0xf4>
 8003668:	1a89      	subs	r1, r1, r2
 800366a:	b289      	uxth	r1, r1
 800366c:	2900      	cmp	r1, #0
 800366e:	d0a7      	beq.n	80035c0 <HAL_UART_IRQHandler+0xf4>
 8003670:	681a      	ldr	r2, [r3, #0]
 8003672:	4e17      	ldr	r6, [pc, #92]	@ (80036d0 <HAL_UART_IRQHandler+0x204>)
 8003674:	4032      	ands	r2, r6
 8003676:	601a      	str	r2, [r3, #0]
 8003678:	689a      	ldr	r2, [r3, #8]
 800367a:	43ba      	bics	r2, r7
 800367c:	609a      	str	r2, [r3, #8]
 800367e:	2220      	movs	r2, #32
 8003680:	67e2      	str	r2, [r4, #124]	@ 0x7c
 8003682:	6620      	str	r0, [r4, #96]	@ 0x60
 8003684:	681a      	ldr	r2, [r3, #0]
 8003686:	6660      	str	r0, [r4, #100]	@ 0x64
 8003688:	43aa      	bics	r2, r5
 800368a:	601a      	str	r2, [r3, #0]
 800368c:	e7de      	b.n	800364c <HAL_UART_IRQHandler+0x180>
 800368e:	2080      	movs	r0, #128	@ 0x80
 8003690:	4202      	tst	r2, r0
 8003692:	d003      	beq.n	800369c <HAL_UART_IRQHandler+0x1d0>
 8003694:	4201      	tst	r1, r0
 8003696:	d001      	beq.n	800369c <HAL_UART_IRQHandler+0x1d0>
 8003698:	6ea3      	ldr	r3, [r4, #104]	@ 0x68
 800369a:	e728      	b.n	80034ee <HAL_UART_IRQHandler+0x22>
 800369c:	2040      	movs	r0, #64	@ 0x40
 800369e:	4202      	tst	r2, r0
 80036a0:	d100      	bne.n	80036a4 <HAL_UART_IRQHandler+0x1d8>
 80036a2:	e78d      	b.n	80035c0 <HAL_UART_IRQHandler+0xf4>
 80036a4:	4201      	tst	r1, r0
 80036a6:	d100      	bne.n	80036aa <HAL_UART_IRQHandler+0x1de>
 80036a8:	e78a      	b.n	80035c0 <HAL_UART_IRQHandler+0xf4>
 80036aa:	681a      	ldr	r2, [r3, #0]
 80036ac:	4382      	bics	r2, r0
 80036ae:	601a      	str	r2, [r3, #0]
 80036b0:	2320      	movs	r3, #32
 80036b2:	67a3      	str	r3, [r4, #120]	@ 0x78
 80036b4:	2300      	movs	r3, #0
 80036b6:	0020      	movs	r0, r4
 80036b8:	66a3      	str	r3, [r4, #104]	@ 0x68
 80036ba:	f7ff feb3 	bl	8003424 <HAL_UART_TxCpltCallback>
 80036be:	e77f      	b.n	80035c0 <HAL_UART_IRQHandler+0xf4>
 80036c0:	0000080f 	.word	0x0000080f
 80036c4:	04000120 	.word	0x04000120
 80036c8:	080034b5 	.word	0x080034b5
 80036cc:	fffffeff 	.word	0xfffffeff
 80036d0:	fffffedf 	.word	0xfffffedf

080036d4 <UART_RxISR_8BIT>:
 80036d4:	0003      	movs	r3, r0
 80036d6:	b510      	push	{r4, lr}
 80036d8:	6fc1      	ldr	r1, [r0, #124]	@ 0x7c
 80036da:	335c      	adds	r3, #92	@ 0x5c
 80036dc:	881a      	ldrh	r2, [r3, #0]
 80036de:	0004      	movs	r4, r0
 80036e0:	6803      	ldr	r3, [r0, #0]
 80036e2:	2922      	cmp	r1, #34	@ 0x22
 80036e4:	d131      	bne.n	800374a <UART_RxISR_8BIT+0x76>
 80036e6:	8c9b      	ldrh	r3, [r3, #36]	@ 0x24
 80036e8:	6d41      	ldr	r1, [r0, #84]	@ 0x54
 80036ea:	4013      	ands	r3, r2
 80036ec:	0002      	movs	r2, r0
 80036ee:	700b      	strb	r3, [r1, #0]
 80036f0:	6d43      	ldr	r3, [r0, #84]	@ 0x54
 80036f2:	325a      	adds	r2, #90	@ 0x5a
 80036f4:	3301      	adds	r3, #1
 80036f6:	6543      	str	r3, [r0, #84]	@ 0x54
 80036f8:	8813      	ldrh	r3, [r2, #0]
 80036fa:	3b01      	subs	r3, #1
 80036fc:	b29b      	uxth	r3, r3
 80036fe:	8013      	strh	r3, [r2, #0]
 8003700:	8813      	ldrh	r3, [r2, #0]
 8003702:	b299      	uxth	r1, r3
 8003704:	2b00      	cmp	r3, #0
 8003706:	d11b      	bne.n	8003740 <UART_RxISR_8BIT+0x6c>
 8003708:	6803      	ldr	r3, [r0, #0]
 800370a:	4812      	ldr	r0, [pc, #72]	@ (8003754 <UART_RxISR_8BIT+0x80>)
 800370c:	681a      	ldr	r2, [r3, #0]
 800370e:	4002      	ands	r2, r0
 8003710:	601a      	str	r2, [r3, #0]
 8003712:	689a      	ldr	r2, [r3, #8]
 8003714:	3023      	adds	r0, #35	@ 0x23
 8003716:	30ff      	adds	r0, #255	@ 0xff
 8003718:	4382      	bics	r2, r0
 800371a:	609a      	str	r2, [r3, #8]
 800371c:	2220      	movs	r2, #32
 800371e:	67e2      	str	r2, [r4, #124]	@ 0x7c
 8003720:	6e22      	ldr	r2, [r4, #96]	@ 0x60
 8003722:	6661      	str	r1, [r4, #100]	@ 0x64
 8003724:	4282      	cmp	r2, r0
 8003726:	d10c      	bne.n	8003742 <UART_RxISR_8BIT+0x6e>
 8003728:	2110      	movs	r1, #16
 800372a:	681a      	ldr	r2, [r3, #0]
 800372c:	0020      	movs	r0, r4
 800372e:	438a      	bics	r2, r1
 8003730:	601a      	str	r2, [r3, #0]
 8003732:	0023      	movs	r3, r4
 8003734:	3358      	adds	r3, #88	@ 0x58
 8003736:	8819      	ldrh	r1, [r3, #0]
 8003738:	f7ff fec7 	bl	80034ca <HAL_UARTEx_RxEventCallback>
 800373c:	2300      	movs	r3, #0
 800373e:	6623      	str	r3, [r4, #96]	@ 0x60
 8003740:	bd10      	pop	{r4, pc}
 8003742:	0020      	movs	r0, r4
 8003744:	f7fd fe8e 	bl	8001464 <HAL_UART_RxCpltCallback>
 8003748:	e7f8      	b.n	800373c <UART_RxISR_8BIT+0x68>
 800374a:	2208      	movs	r2, #8
 800374c:	6999      	ldr	r1, [r3, #24]
 800374e:	430a      	orrs	r2, r1
 8003750:	619a      	str	r2, [r3, #24]
 8003752:	e7f5      	b.n	8003740 <UART_RxISR_8BIT+0x6c>
 8003754:	fffffedf 	.word	0xfffffedf

08003758 <UART_RxISR_16BIT>:
 8003758:	b510      	push	{r4, lr}
 800375a:	0004      	movs	r4, r0
 800375c:	0003      	movs	r3, r0
 800375e:	6fe2      	ldr	r2, [r4, #124]	@ 0x7c
 8003760:	335c      	adds	r3, #92	@ 0x5c
 8003762:	8818      	ldrh	r0, [r3, #0]
 8003764:	6823      	ldr	r3, [r4, #0]
 8003766:	2a22      	cmp	r2, #34	@ 0x22
 8003768:	d12f      	bne.n	80037ca <UART_RxISR_16BIT+0x72>
 800376a:	8c99      	ldrh	r1, [r3, #36]	@ 0x24
 800376c:	6d62      	ldr	r2, [r4, #84]	@ 0x54
 800376e:	4001      	ands	r1, r0
 8003770:	8011      	strh	r1, [r2, #0]
 8003772:	0021      	movs	r1, r4
 8003774:	3202      	adds	r2, #2
 8003776:	315a      	adds	r1, #90	@ 0x5a
 8003778:	6562      	str	r2, [r4, #84]	@ 0x54
 800377a:	880a      	ldrh	r2, [r1, #0]
 800377c:	3a01      	subs	r2, #1
 800377e:	b292      	uxth	r2, r2
 8003780:	800a      	strh	r2, [r1, #0]
 8003782:	880a      	ldrh	r2, [r1, #0]
 8003784:	b291      	uxth	r1, r2
 8003786:	2a00      	cmp	r2, #0
 8003788:	d11a      	bne.n	80037c0 <UART_RxISR_16BIT+0x68>
 800378a:	681a      	ldr	r2, [r3, #0]
 800378c:	4811      	ldr	r0, [pc, #68]	@ (80037d4 <UART_RxISR_16BIT+0x7c>)
 800378e:	4002      	ands	r2, r0
 8003790:	601a      	str	r2, [r3, #0]
 8003792:	689a      	ldr	r2, [r3, #8]
 8003794:	3023      	adds	r0, #35	@ 0x23
 8003796:	30ff      	adds	r0, #255	@ 0xff
 8003798:	4382      	bics	r2, r0
 800379a:	609a      	str	r2, [r3, #8]
 800379c:	2220      	movs	r2, #32
 800379e:	67e2      	str	r2, [r4, #124]	@ 0x7c
 80037a0:	6e22      	ldr	r2, [r4, #96]	@ 0x60
 80037a2:	6661      	str	r1, [r4, #100]	@ 0x64
 80037a4:	4282      	cmp	r2, r0
 80037a6:	d10c      	bne.n	80037c2 <UART_RxISR_16BIT+0x6a>
 80037a8:	2110      	movs	r1, #16
 80037aa:	681a      	ldr	r2, [r3, #0]
 80037ac:	0020      	movs	r0, r4
 80037ae:	438a      	bics	r2, r1
 80037b0:	601a      	str	r2, [r3, #0]
 80037b2:	0023      	movs	r3, r4
 80037b4:	3358      	adds	r3, #88	@ 0x58
 80037b6:	8819      	ldrh	r1, [r3, #0]
 80037b8:	f7ff fe87 	bl	80034ca <HAL_UARTEx_RxEventCallback>
 80037bc:	2300      	movs	r3, #0
 80037be:	6623      	str	r3, [r4, #96]	@ 0x60
 80037c0:	bd10      	pop	{r4, pc}
 80037c2:	0020      	movs	r0, r4
 80037c4:	f7fd fe4e 	bl	8001464 <HAL_UART_RxCpltCallback>
 80037c8:	e7f8      	b.n	80037bc <UART_RxISR_16BIT+0x64>
 80037ca:	2208      	movs	r2, #8
 80037cc:	6999      	ldr	r1, [r3, #24]
 80037ce:	430a      	orrs	r2, r1
 80037d0:	619a      	str	r2, [r3, #24]
 80037d2:	e7f5      	b.n	80037c0 <UART_RxISR_16BIT+0x68>
 80037d4:	fffffedf 	.word	0xfffffedf

080037d8 <UART_SetConfig>:
 80037d8:	b570      	push	{r4, r5, r6, lr}
 80037da:	0004      	movs	r4, r0
 80037dc:	6925      	ldr	r5, [r4, #16]
 80037de:	68a2      	ldr	r2, [r4, #8]
 80037e0:	6801      	ldr	r1, [r0, #0]
 80037e2:	432a      	orrs	r2, r5
 80037e4:	6965      	ldr	r5, [r4, #20]
 80037e6:	69c3      	ldr	r3, [r0, #28]
 80037e8:	432a      	orrs	r2, r5
 80037ea:	6808      	ldr	r0, [r1, #0]
 80037ec:	4d38      	ldr	r5, [pc, #224]	@ (80038d0 <UART_SetConfig+0xf8>)
 80037ee:	431a      	orrs	r2, r3
 80037f0:	4028      	ands	r0, r5
 80037f2:	4302      	orrs	r2, r0
 80037f4:	600a      	str	r2, [r1, #0]
 80037f6:	684a      	ldr	r2, [r1, #4]
 80037f8:	4836      	ldr	r0, [pc, #216]	@ (80038d4 <UART_SetConfig+0xfc>)
 80037fa:	6a25      	ldr	r5, [r4, #32]
 80037fc:	4002      	ands	r2, r0
 80037fe:	68e0      	ldr	r0, [r4, #12]
 8003800:	4302      	orrs	r2, r0
 8003802:	604a      	str	r2, [r1, #4]
 8003804:	69a2      	ldr	r2, [r4, #24]
 8003806:	6888      	ldr	r0, [r1, #8]
 8003808:	432a      	orrs	r2, r5
 800380a:	4d33      	ldr	r5, [pc, #204]	@ (80038d8 <UART_SetConfig+0x100>)
 800380c:	4028      	ands	r0, r5
 800380e:	4302      	orrs	r2, r0
 8003810:	608a      	str	r2, [r1, #8]
 8003812:	2103      	movs	r1, #3
 8003814:	4a31      	ldr	r2, [pc, #196]	@ (80038dc <UART_SetConfig+0x104>)
 8003816:	6b12      	ldr	r2, [r2, #48]	@ 0x30
 8003818:	400a      	ands	r2, r1
 800381a:	2180      	movs	r1, #128	@ 0x80
 800381c:	3a01      	subs	r2, #1
 800381e:	0209      	lsls	r1, r1, #8
 8003820:	2a02      	cmp	r2, #2
 8003822:	d84a      	bhi.n	80038ba <UART_SetConfig+0xe2>
 8003824:	482e      	ldr	r0, [pc, #184]	@ (80038e0 <UART_SetConfig+0x108>)
 8003826:	5c80      	ldrb	r0, [r0, r2]
 8003828:	428b      	cmp	r3, r1
 800382a:	d121      	bne.n	8003870 <UART_SetConfig+0x98>
 800382c:	2808      	cmp	r0, #8
 800382e:	d842      	bhi.n	80038b6 <UART_SetConfig+0xde>
 8003830:	f7fc fc6a 	bl	8000108 <__gnu_thumb1_case_uqi>
 8003834:	41084145 	.word	0x41084145
 8003838:	41414105 	.word	0x41414105
 800383c:	09          	.byte	0x09
 800383d:	00          	.byte	0x00
 800383e:	f7ff fa3d 	bl	8002cbc <HAL_RCC_GetSysClockFreq>
 8003842:	e03e      	b.n	80038c2 <UART_SetConfig+0xea>
 8003844:	4b27      	ldr	r3, [pc, #156]	@ (80038e4 <UART_SetConfig+0x10c>)
 8003846:	6861      	ldr	r1, [r4, #4]
 8003848:	005b      	lsls	r3, r3, #1
 800384a:	0848      	lsrs	r0, r1, #1
 800384c:	1818      	adds	r0, r3, r0
 800384e:	f7fc fc65 	bl	800011c <__udivsi3>
 8003852:	4925      	ldr	r1, [pc, #148]	@ (80038e8 <UART_SetConfig+0x110>)
 8003854:	b282      	uxth	r2, r0
 8003856:	3a10      	subs	r2, #16
 8003858:	0403      	lsls	r3, r0, #16
 800385a:	428a      	cmp	r2, r1
 800385c:	d82b      	bhi.n	80038b6 <UART_SetConfig+0xde>
 800385e:	220f      	movs	r2, #15
 8003860:	031b      	lsls	r3, r3, #12
 8003862:	4390      	bics	r0, r2
 8003864:	b280      	uxth	r0, r0
 8003866:	6822      	ldr	r2, [r4, #0]
 8003868:	0f5b      	lsrs	r3, r3, #29
 800386a:	4318      	orrs	r0, r3
 800386c:	60d0      	str	r0, [r2, #12]
 800386e:	e02a      	b.n	80038c6 <UART_SetConfig+0xee>
 8003870:	2808      	cmp	r0, #8
 8003872:	d820      	bhi.n	80038b6 <UART_SetConfig+0xde>
 8003874:	f7fc fc48 	bl	8000108 <__gnu_thumb1_case_uqi>
 8003878:	1f051f14 	.word	0x1f051f14
 800387c:	1f1f1f19 	.word	0x1f1f1f19
 8003880:	1c          	.byte	0x1c
 8003881:	00          	.byte	0x00
 8003882:	4818      	ldr	r0, [pc, #96]	@ (80038e4 <UART_SetConfig+0x10c>)
 8003884:	6861      	ldr	r1, [r4, #4]
 8003886:	084b      	lsrs	r3, r1, #1
 8003888:	1818      	adds	r0, r3, r0
 800388a:	f7fc fc47 	bl	800011c <__udivsi3>
 800388e:	b280      	uxth	r0, r0
 8003890:	0002      	movs	r2, r0
 8003892:	4b15      	ldr	r3, [pc, #84]	@ (80038e8 <UART_SetConfig+0x110>)
 8003894:	3a10      	subs	r2, #16
 8003896:	429a      	cmp	r2, r3
 8003898:	d80d      	bhi.n	80038b6 <UART_SetConfig+0xde>
 800389a:	6823      	ldr	r3, [r4, #0]
 800389c:	60d8      	str	r0, [r3, #12]
 800389e:	e012      	b.n	80038c6 <UART_SetConfig+0xee>
 80038a0:	f7ff fac2 	bl	8002e28 <HAL_RCC_GetPCLK1Freq>
 80038a4:	2800      	cmp	r0, #0
 80038a6:	d00e      	beq.n	80038c6 <UART_SetConfig+0xee>
 80038a8:	e7ec      	b.n	8003884 <UART_SetConfig+0xac>
 80038aa:	f7ff fa07 	bl	8002cbc <HAL_RCC_GetSysClockFreq>
 80038ae:	e7f9      	b.n	80038a4 <UART_SetConfig+0xcc>
 80038b0:	2080      	movs	r0, #128	@ 0x80
 80038b2:	0200      	lsls	r0, r0, #8
 80038b4:	e7e6      	b.n	8003884 <UART_SetConfig+0xac>
 80038b6:	2001      	movs	r0, #1
 80038b8:	e006      	b.n	80038c8 <UART_SetConfig+0xf0>
 80038ba:	428b      	cmp	r3, r1
 80038bc:	d1f0      	bne.n	80038a0 <UART_SetConfig+0xc8>
 80038be:	f7ff fab3 	bl	8002e28 <HAL_RCC_GetPCLK1Freq>
 80038c2:	1e03      	subs	r3, r0, #0
 80038c4:	d1bf      	bne.n	8003846 <UART_SetConfig+0x6e>
 80038c6:	2000      	movs	r0, #0
 80038c8:	2300      	movs	r3, #0
 80038ca:	6663      	str	r3, [r4, #100]	@ 0x64
 80038cc:	66a3      	str	r3, [r4, #104]	@ 0x68
 80038ce:	bd70      	pop	{r4, r5, r6, pc}
 80038d0:	ffff69f3 	.word	0xffff69f3
 80038d4:	ffffcfff 	.word	0xffffcfff
 80038d8:	fffff4ff 	.word	0xfffff4ff
 80038dc:	40021000 	.word	0x40021000
 80038e0:	08003f12 	.word	0x08003f12
 80038e4:	007a1200 	.word	0x007a1200
 80038e8:	0000ffef 	.word	0x0000ffef

080038ec <UART_AdvFeatureConfig>:
 80038ec:	6a43      	ldr	r3, [r0, #36]	@ 0x24
 80038ee:	b530      	push	{r4, r5, lr}
 80038f0:	07da      	lsls	r2, r3, #31
 80038f2:	d506      	bpl.n	8003902 <UART_AdvFeatureConfig+0x16>
 80038f4:	6801      	ldr	r1, [r0, #0]
 80038f6:	4c28      	ldr	r4, [pc, #160]	@ (8003998 <UART_AdvFeatureConfig+0xac>)
 80038f8:	684a      	ldr	r2, [r1, #4]
 80038fa:	4022      	ands	r2, r4
 80038fc:	6a84      	ldr	r4, [r0, #40]	@ 0x28
 80038fe:	4322      	orrs	r2, r4
 8003900:	604a      	str	r2, [r1, #4]
 8003902:	079a      	lsls	r2, r3, #30
 8003904:	d506      	bpl.n	8003914 <UART_AdvFeatureConfig+0x28>
 8003906:	6801      	ldr	r1, [r0, #0]
 8003908:	4c24      	ldr	r4, [pc, #144]	@ (800399c <UART_AdvFeatureConfig+0xb0>)
 800390a:	684a      	ldr	r2, [r1, #4]
 800390c:	4022      	ands	r2, r4
 800390e:	6ac4      	ldr	r4, [r0, #44]	@ 0x2c
 8003910:	4322      	orrs	r2, r4
 8003912:	604a      	str	r2, [r1, #4]
 8003914:	075a      	lsls	r2, r3, #29
 8003916:	d506      	bpl.n	8003926 <UART_AdvFeatureConfig+0x3a>
 8003918:	6801      	ldr	r1, [r0, #0]
 800391a:	4c21      	ldr	r4, [pc, #132]	@ (80039a0 <UART_AdvFeatureConfig+0xb4>)
 800391c:	684a      	ldr	r2, [r1, #4]
 800391e:	4022      	ands	r2, r4
 8003920:	6b04      	ldr	r4, [r0, #48]	@ 0x30
 8003922:	4322      	orrs	r2, r4
 8003924:	604a      	str	r2, [r1, #4]
 8003926:	071a      	lsls	r2, r3, #28
 8003928:	d506      	bpl.n	8003938 <UART_AdvFeatureConfig+0x4c>
 800392a:	6801      	ldr	r1, [r0, #0]
 800392c:	4c1d      	ldr	r4, [pc, #116]	@ (80039a4 <UART_AdvFeatureConfig+0xb8>)
 800392e:	684a      	ldr	r2, [r1, #4]
 8003930:	4022      	ands	r2, r4
 8003932:	6b44      	ldr	r4, [r0, #52]	@ 0x34
 8003934:	4322      	orrs	r2, r4
 8003936:	604a      	str	r2, [r1, #4]
 8003938:	06da      	lsls	r2, r3, #27
 800393a:	d506      	bpl.n	800394a <UART_AdvFeatureConfig+0x5e>
 800393c:	6801      	ldr	r1, [r0, #0]
 800393e:	4c1a      	ldr	r4, [pc, #104]	@ (80039a8 <UART_AdvFeatureConfig+0xbc>)
 8003940:	688a      	ldr	r2, [r1, #8]
 8003942:	4022      	ands	r2, r4
 8003944:	6b84      	ldr	r4, [r0, #56]	@ 0x38
 8003946:	4322      	orrs	r2, r4
 8003948:	608a      	str	r2, [r1, #8]
 800394a:	069a      	lsls	r2, r3, #26
 800394c:	d506      	bpl.n	800395c <UART_AdvFeatureConfig+0x70>
 800394e:	6801      	ldr	r1, [r0, #0]
 8003950:	4c16      	ldr	r4, [pc, #88]	@ (80039ac <UART_AdvFeatureConfig+0xc0>)
 8003952:	688a      	ldr	r2, [r1, #8]
 8003954:	4022      	ands	r2, r4
 8003956:	6bc4      	ldr	r4, [r0, #60]	@ 0x3c
 8003958:	4322      	orrs	r2, r4
 800395a:	608a      	str	r2, [r1, #8]
 800395c:	065a      	lsls	r2, r3, #25
 800395e:	d510      	bpl.n	8003982 <UART_AdvFeatureConfig+0x96>
 8003960:	6801      	ldr	r1, [r0, #0]
 8003962:	4d13      	ldr	r5, [pc, #76]	@ (80039b0 <UART_AdvFeatureConfig+0xc4>)
 8003964:	684a      	ldr	r2, [r1, #4]
 8003966:	6c04      	ldr	r4, [r0, #64]	@ 0x40
 8003968:	402a      	ands	r2, r5
 800396a:	4322      	orrs	r2, r4
 800396c:	604a      	str	r2, [r1, #4]
 800396e:	2280      	movs	r2, #128	@ 0x80
 8003970:	0352      	lsls	r2, r2, #13
 8003972:	4294      	cmp	r4, r2
 8003974:	d105      	bne.n	8003982 <UART_AdvFeatureConfig+0x96>
 8003976:	684a      	ldr	r2, [r1, #4]
 8003978:	4c0e      	ldr	r4, [pc, #56]	@ (80039b4 <UART_AdvFeatureConfig+0xc8>)
 800397a:	4022      	ands	r2, r4
 800397c:	6c44      	ldr	r4, [r0, #68]	@ 0x44
 800397e:	4322      	orrs	r2, r4
 8003980:	604a      	str	r2, [r1, #4]
 8003982:	061b      	lsls	r3, r3, #24
 8003984:	d506      	bpl.n	8003994 <UART_AdvFeatureConfig+0xa8>
 8003986:	6802      	ldr	r2, [r0, #0]
 8003988:	490b      	ldr	r1, [pc, #44]	@ (80039b8 <UART_AdvFeatureConfig+0xcc>)
 800398a:	6853      	ldr	r3, [r2, #4]
 800398c:	400b      	ands	r3, r1
 800398e:	6c81      	ldr	r1, [r0, #72]	@ 0x48
 8003990:	430b      	orrs	r3, r1
 8003992:	6053      	str	r3, [r2, #4]
 8003994:	bd30      	pop	{r4, r5, pc}
 8003996:	46c0      	nop			@ (mov r8, r8)
 8003998:	fffdffff 	.word	0xfffdffff
 800399c:	fffeffff 	.word	0xfffeffff
 80039a0:	fffbffff 	.word	0xfffbffff
 80039a4:	ffff7fff 	.word	0xffff7fff
 80039a8:	ffffefff 	.word	0xffffefff
 80039ac:	ffffdfff 	.word	0xffffdfff
 80039b0:	ffefffff 	.word	0xffefffff
 80039b4:	ff9fffff 	.word	0xff9fffff
 80039b8:	fff7ffff 	.word	0xfff7ffff

080039bc <UART_WaitOnFlagUntilTimeout>:
 80039bc:	b5f8      	push	{r3, r4, r5, r6, r7, lr}
 80039be:	0004      	movs	r4, r0
 80039c0:	000d      	movs	r5, r1
 80039c2:	0017      	movs	r7, r2
 80039c4:	001e      	movs	r6, r3
 80039c6:	6822      	ldr	r2, [r4, #0]
 80039c8:	69d3      	ldr	r3, [r2, #28]
 80039ca:	402b      	ands	r3, r5
 80039cc:	1b5b      	subs	r3, r3, r5
 80039ce:	4259      	negs	r1, r3
 80039d0:	414b      	adcs	r3, r1
 80039d2:	42bb      	cmp	r3, r7
 80039d4:	d001      	beq.n	80039da <UART_WaitOnFlagUntilTimeout+0x1e>
 80039d6:	2000      	movs	r0, #0
 80039d8:	e01b      	b.n	8003a12 <UART_WaitOnFlagUntilTimeout+0x56>
 80039da:	9b06      	ldr	r3, [sp, #24]
 80039dc:	3301      	adds	r3, #1
 80039de:	d0f3      	beq.n	80039c8 <UART_WaitOnFlagUntilTimeout+0xc>
 80039e0:	f7fe f8b2 	bl	8001b48 <HAL_GetTick>
 80039e4:	9a06      	ldr	r2, [sp, #24]
 80039e6:	6823      	ldr	r3, [r4, #0]
 80039e8:	1b80      	subs	r0, r0, r6
 80039ea:	4290      	cmp	r0, r2
 80039ec:	d801      	bhi.n	80039f2 <UART_WaitOnFlagUntilTimeout+0x36>
 80039ee:	2a00      	cmp	r2, #0
 80039f0:	d110      	bne.n	8003a14 <UART_WaitOnFlagUntilTimeout+0x58>
 80039f2:	681a      	ldr	r2, [r3, #0]
 80039f4:	4913      	ldr	r1, [pc, #76]	@ (8003a44 <UART_WaitOnFlagUntilTimeout+0x88>)
 80039f6:	400a      	ands	r2, r1
 80039f8:	601a      	str	r2, [r3, #0]
 80039fa:	689a      	ldr	r2, [r3, #8]
 80039fc:	31a3      	adds	r1, #163	@ 0xa3
 80039fe:	31ff      	adds	r1, #255	@ 0xff
 8003a00:	438a      	bics	r2, r1
 8003a02:	609a      	str	r2, [r3, #8]
 8003a04:	2320      	movs	r3, #32
 8003a06:	67a3      	str	r3, [r4, #120]	@ 0x78
 8003a08:	67e3      	str	r3, [r4, #124]	@ 0x7c
 8003a0a:	2300      	movs	r3, #0
 8003a0c:	2003      	movs	r0, #3
 8003a0e:	3474      	adds	r4, #116	@ 0x74
 8003a10:	7023      	strb	r3, [r4, #0]
 8003a12:	bdf8      	pop	{r3, r4, r5, r6, r7, pc}
 8003a14:	681a      	ldr	r2, [r3, #0]
 8003a16:	0752      	lsls	r2, r2, #29
 8003a18:	d5d5      	bpl.n	80039c6 <UART_WaitOnFlagUntilTimeout+0xa>
 8003a1a:	2280      	movs	r2, #128	@ 0x80
 8003a1c:	69d9      	ldr	r1, [r3, #28]
 8003a1e:	0112      	lsls	r2, r2, #4
 8003a20:	4211      	tst	r1, r2
 8003a22:	d0d0      	beq.n	80039c6 <UART_WaitOnFlagUntilTimeout+0xa>
 8003a24:	621a      	str	r2, [r3, #32]
 8003a26:	681a      	ldr	r2, [r3, #0]
 8003a28:	4906      	ldr	r1, [pc, #24]	@ (8003a44 <UART_WaitOnFlagUntilTimeout+0x88>)
 8003a2a:	400a      	ands	r2, r1
 8003a2c:	601a      	str	r2, [r3, #0]
 8003a2e:	689a      	ldr	r2, [r3, #8]
 8003a30:	31a3      	adds	r1, #163	@ 0xa3
 8003a32:	31ff      	adds	r1, #255	@ 0xff
 8003a34:	438a      	bics	r2, r1
 8003a36:	609a      	str	r2, [r3, #8]
 8003a38:	2320      	movs	r3, #32
 8003a3a:	1d22      	adds	r2, r4, #4
 8003a3c:	67a3      	str	r3, [r4, #120]	@ 0x78
 8003a3e:	67e3      	str	r3, [r4, #124]	@ 0x7c
 8003a40:	67d3      	str	r3, [r2, #124]	@ 0x7c
 8003a42:	e7e2      	b.n	8003a0a <UART_WaitOnFlagUntilTimeout+0x4e>
 8003a44:	fffffe5f 	.word	0xfffffe5f

08003a48 <UART_CheckIdleState>:
 8003a48:	b573      	push	{r0, r1, r4, r5, r6, lr}
 8003a4a:	2600      	movs	r6, #0
 8003a4c:	0004      	movs	r4, r0
 8003a4e:	1d03      	adds	r3, r0, #4
 8003a50:	67de      	str	r6, [r3, #124]	@ 0x7c
 8003a52:	f7fe f879 	bl	8001b48 <HAL_GetTick>
 8003a56:	6823      	ldr	r3, [r4, #0]
 8003a58:	0005      	movs	r5, r0
 8003a5a:	681b      	ldr	r3, [r3, #0]
 8003a5c:	071b      	lsls	r3, r3, #28
 8003a5e:	d416      	bmi.n	8003a8e <UART_CheckIdleState+0x46>
 8003a60:	6823      	ldr	r3, [r4, #0]
 8003a62:	681b      	ldr	r3, [r3, #0]
 8003a64:	075b      	lsls	r3, r3, #29
 8003a66:	d50a      	bpl.n	8003a7e <UART_CheckIdleState+0x36>
 8003a68:	2180      	movs	r1, #128	@ 0x80
 8003a6a:	4b0f      	ldr	r3, [pc, #60]	@ (8003aa8 <UART_CheckIdleState+0x60>)
 8003a6c:	2200      	movs	r2, #0
 8003a6e:	9300      	str	r3, [sp, #0]
 8003a70:	0020      	movs	r0, r4
 8003a72:	002b      	movs	r3, r5
 8003a74:	03c9      	lsls	r1, r1, #15
 8003a76:	f7ff ffa1 	bl	80039bc <UART_WaitOnFlagUntilTimeout>
 8003a7a:	2800      	cmp	r0, #0
 8003a7c:	d112      	bne.n	8003aa4 <UART_CheckIdleState+0x5c>
 8003a7e:	2320      	movs	r3, #32
 8003a80:	2000      	movs	r0, #0
 8003a82:	67a3      	str	r3, [r4, #120]	@ 0x78
 8003a84:	67e3      	str	r3, [r4, #124]	@ 0x7c
 8003a86:	6620      	str	r0, [r4, #96]	@ 0x60
 8003a88:	3474      	adds	r4, #116	@ 0x74
 8003a8a:	7020      	strb	r0, [r4, #0]
 8003a8c:	e00b      	b.n	8003aa6 <UART_CheckIdleState+0x5e>
 8003a8e:	2180      	movs	r1, #128	@ 0x80
 8003a90:	4b05      	ldr	r3, [pc, #20]	@ (8003aa8 <UART_CheckIdleState+0x60>)
 8003a92:	0032      	movs	r2, r6
 8003a94:	9300      	str	r3, [sp, #0]
 8003a96:	0389      	lsls	r1, r1, #14
 8003a98:	0003      	movs	r3, r0
 8003a9a:	0020      	movs	r0, r4
 8003a9c:	f7ff ff8e 	bl	80039bc <UART_WaitOnFlagUntilTimeout>
 8003aa0:	2800      	cmp	r0, #0
 8003aa2:	d0dd      	beq.n	8003a60 <UART_CheckIdleState+0x18>
 8003aa4:	2003      	movs	r0, #3
 8003aa6:	bd76      	pop	{r1, r2, r4, r5, r6, pc}
 8003aa8:	01ffffff 	.word	0x01ffffff

08003aac <UART_Start_Receive_IT>:
 8003aac:	0003      	movs	r3, r0
 8003aae:	3358      	adds	r3, #88	@ 0x58
 8003ab0:	b510      	push	{r4, lr}
 8003ab2:	6541      	str	r1, [r0, #84]	@ 0x54
 8003ab4:	801a      	strh	r2, [r3, #0]
 8003ab6:	805a      	strh	r2, [r3, #2]
 8003ab8:	2380      	movs	r3, #128	@ 0x80
 8003aba:	6881      	ldr	r1, [r0, #8]
 8003abc:	015b      	lsls	r3, r3, #5
 8003abe:	4299      	cmp	r1, r3
 8003ac0:	d128      	bne.n	8003b14 <UART_Start_Receive_IT+0x68>
 8003ac2:	6903      	ldr	r3, [r0, #16]
 8003ac4:	1e5a      	subs	r2, r3, #1
 8003ac6:	4193      	sbcs	r3, r2
 8003ac8:	22ff      	movs	r2, #255	@ 0xff
 8003aca:	425b      	negs	r3, r3
 8003acc:	4393      	bics	r3, r2
 8003ace:	4a16      	ldr	r2, [pc, #88]	@ (8003b28 <UART_Start_Receive_IT+0x7c>)
 8003ad0:	189b      	adds	r3, r3, r2
 8003ad2:	0002      	movs	r2, r0
 8003ad4:	325c      	adds	r2, #92	@ 0x5c
 8003ad6:	8013      	strh	r3, [r2, #0]
 8003ad8:	2200      	movs	r2, #0
 8003ada:	1d03      	adds	r3, r0, #4
 8003adc:	67da      	str	r2, [r3, #124]	@ 0x7c
 8003ade:	2322      	movs	r3, #34	@ 0x22
 8003ae0:	6802      	ldr	r2, [r0, #0]
 8003ae2:	67c3      	str	r3, [r0, #124]	@ 0x7c
 8003ae4:	6894      	ldr	r4, [r2, #8]
 8003ae6:	3b21      	subs	r3, #33	@ 0x21
 8003ae8:	4323      	orrs	r3, r4
 8003aea:	2480      	movs	r4, #128	@ 0x80
 8003aec:	6093      	str	r3, [r2, #8]
 8003aee:	0164      	lsls	r4, r4, #5
 8003af0:	4b0e      	ldr	r3, [pc, #56]	@ (8003b2c <UART_Start_Receive_IT+0x80>)
 8003af2:	42a1      	cmp	r1, r4
 8003af4:	d103      	bne.n	8003afe <UART_Start_Receive_IT+0x52>
 8003af6:	6901      	ldr	r1, [r0, #16]
 8003af8:	2900      	cmp	r1, #0
 8003afa:	d100      	bne.n	8003afe <UART_Start_Receive_IT+0x52>
 8003afc:	4b0c      	ldr	r3, [pc, #48]	@ (8003b30 <UART_Start_Receive_IT+0x84>)
 8003afe:	6643      	str	r3, [r0, #100]	@ 0x64
 8003b00:	0003      	movs	r3, r0
 8003b02:	2000      	movs	r0, #0
 8003b04:	3374      	adds	r3, #116	@ 0x74
 8003b06:	7018      	strb	r0, [r3, #0]
 8003b08:	2390      	movs	r3, #144	@ 0x90
 8003b0a:	6811      	ldr	r1, [r2, #0]
 8003b0c:	005b      	lsls	r3, r3, #1
 8003b0e:	430b      	orrs	r3, r1
 8003b10:	6013      	str	r3, [r2, #0]
 8003b12:	bd10      	pop	{r4, pc}
 8003b14:	2300      	movs	r3, #0
 8003b16:	4299      	cmp	r1, r3
 8003b18:	d1db      	bne.n	8003ad2 <UART_Start_Receive_IT+0x26>
 8003b1a:	6902      	ldr	r2, [r0, #16]
 8003b1c:	337f      	adds	r3, #127	@ 0x7f
 8003b1e:	2a00      	cmp	r2, #0
 8003b20:	d1d7      	bne.n	8003ad2 <UART_Start_Receive_IT+0x26>
 8003b22:	3380      	adds	r3, #128	@ 0x80
 8003b24:	e7d5      	b.n	8003ad2 <UART_Start_Receive_IT+0x26>
 8003b26:	46c0      	nop			@ (mov r8, r8)
 8003b28:	000001ff 	.word	0x000001ff
 8003b2c:	080036d5 	.word	0x080036d5
 8003b30:	08003759 	.word	0x08003759

08003b34 <HAL_UART_Receive_IT>:
 8003b34:	b570      	push	{r4, r5, r6, lr}
 8003b36:	6fc4      	ldr	r4, [r0, #124]	@ 0x7c
 8003b38:	0003      	movs	r3, r0
 8003b3a:	2002      	movs	r0, #2
 8003b3c:	2c20      	cmp	r4, #32
 8003b3e:	d126      	bne.n	8003b8e <HAL_UART_Receive_IT+0x5a>
 8003b40:	3801      	subs	r0, #1
 8003b42:	2900      	cmp	r1, #0
 8003b44:	d023      	beq.n	8003b8e <HAL_UART_Receive_IT+0x5a>
 8003b46:	2a00      	cmp	r2, #0
 8003b48:	d021      	beq.n	8003b8e <HAL_UART_Receive_IT+0x5a>
 8003b4a:	2080      	movs	r0, #128	@ 0x80
 8003b4c:	689c      	ldr	r4, [r3, #8]
 8003b4e:	0140      	lsls	r0, r0, #5
 8003b50:	4284      	cmp	r4, r0
 8003b52:	d106      	bne.n	8003b62 <HAL_UART_Receive_IT+0x2e>
 8003b54:	6918      	ldr	r0, [r3, #16]
 8003b56:	2800      	cmp	r0, #0
 8003b58:	d103      	bne.n	8003b62 <HAL_UART_Receive_IT+0x2e>
 8003b5a:	2401      	movs	r4, #1
 8003b5c:	0020      	movs	r0, r4
 8003b5e:	4221      	tst	r1, r4
 8003b60:	d115      	bne.n	8003b8e <HAL_UART_Receive_IT+0x5a>
 8003b62:	001c      	movs	r4, r3
 8003b64:	3474      	adds	r4, #116	@ 0x74
 8003b66:	7825      	ldrb	r5, [r4, #0]
 8003b68:	2002      	movs	r0, #2
 8003b6a:	2d01      	cmp	r5, #1
 8003b6c:	d00f      	beq.n	8003b8e <HAL_UART_Receive_IT+0x5a>
 8003b6e:	3801      	subs	r0, #1
 8003b70:	7020      	strb	r0, [r4, #0]
 8003b72:	2000      	movs	r0, #0
 8003b74:	6618      	str	r0, [r3, #96]	@ 0x60
 8003b76:	6818      	ldr	r0, [r3, #0]
 8003b78:	6844      	ldr	r4, [r0, #4]
 8003b7a:	0224      	lsls	r4, r4, #8
 8003b7c:	d504      	bpl.n	8003b88 <HAL_UART_Receive_IT+0x54>
 8003b7e:	2480      	movs	r4, #128	@ 0x80
 8003b80:	6805      	ldr	r5, [r0, #0]
 8003b82:	04e4      	lsls	r4, r4, #19
 8003b84:	432c      	orrs	r4, r5
 8003b86:	6004      	str	r4, [r0, #0]
 8003b88:	0018      	movs	r0, r3
 8003b8a:	f7ff ff8f 	bl	8003aac <UART_Start_Receive_IT>
 8003b8e:	bd70      	pop	{r4, r5, r6, pc}

08003b90 <HAL_RS485Ex_Init>:
 8003b90:	b5f8      	push	{r3, r4, r5, r6, r7, lr}
 8003b92:	0004      	movs	r4, r0
 8003b94:	000f      	movs	r7, r1
 8003b96:	0016      	movs	r6, r2
 8003b98:	001d      	movs	r5, r3
 8003b9a:	2800      	cmp	r0, #0
 8003b9c:	d101      	bne.n	8003ba2 <HAL_RS485Ex_Init+0x12>
 8003b9e:	2001      	movs	r0, #1
 8003ba0:	bdf8      	pop	{r3, r4, r5, r6, r7, pc}
 8003ba2:	6f83      	ldr	r3, [r0, #120]	@ 0x78
 8003ba4:	2b00      	cmp	r3, #0
 8003ba6:	d104      	bne.n	8003bb2 <HAL_RS485Ex_Init+0x22>
 8003ba8:	0002      	movs	r2, r0
 8003baa:	3274      	adds	r2, #116	@ 0x74
 8003bac:	7013      	strb	r3, [r2, #0]
 8003bae:	f7fd fed9 	bl	8001964 <HAL_UART_MspInit>
 8003bb2:	2324      	movs	r3, #36	@ 0x24
 8003bb4:	2101      	movs	r1, #1
 8003bb6:	6822      	ldr	r2, [r4, #0]
 8003bb8:	67a3      	str	r3, [r4, #120]	@ 0x78
 8003bba:	6813      	ldr	r3, [r2, #0]
 8003bbc:	0020      	movs	r0, r4
 8003bbe:	438b      	bics	r3, r1
 8003bc0:	6013      	str	r3, [r2, #0]
 8003bc2:	f7ff fe09 	bl	80037d8 <UART_SetConfig>
 8003bc6:	2801      	cmp	r0, #1
 8003bc8:	d0e9      	beq.n	8003b9e <HAL_RS485Ex_Init+0xe>
 8003bca:	6a63      	ldr	r3, [r4, #36]	@ 0x24
 8003bcc:	2b00      	cmp	r3, #0
 8003bce:	d002      	beq.n	8003bd6 <HAL_RS485Ex_Init+0x46>
 8003bd0:	0020      	movs	r0, r4
 8003bd2:	f7ff fe8b 	bl	80038ec <UART_AdvFeatureConfig>
 8003bd6:	2280      	movs	r2, #128	@ 0x80
 8003bd8:	6823      	ldr	r3, [r4, #0]
 8003bda:	01d2      	lsls	r2, r2, #7
 8003bdc:	6899      	ldr	r1, [r3, #8]
 8003bde:	0576      	lsls	r6, r6, #21
 8003be0:	430a      	orrs	r2, r1
 8003be2:	609a      	str	r2, [r3, #8]
 8003be4:	689a      	ldr	r2, [r3, #8]
 8003be6:	4909      	ldr	r1, [pc, #36]	@ (8003c0c <HAL_RS485Ex_Init+0x7c>)
 8003be8:	042d      	lsls	r5, r5, #16
 8003bea:	400a      	ands	r2, r1
 8003bec:	433a      	orrs	r2, r7
 8003bee:	609a      	str	r2, [r3, #8]
 8003bf0:	681a      	ldr	r2, [r3, #0]
 8003bf2:	4907      	ldr	r1, [pc, #28]	@ (8003c10 <HAL_RS485Ex_Init+0x80>)
 8003bf4:	4335      	orrs	r5, r6
 8003bf6:	400a      	ands	r2, r1
 8003bf8:	4315      	orrs	r5, r2
 8003bfa:	2201      	movs	r2, #1
 8003bfc:	601d      	str	r5, [r3, #0]
 8003bfe:	6819      	ldr	r1, [r3, #0]
 8003c00:	0020      	movs	r0, r4
 8003c02:	430a      	orrs	r2, r1
 8003c04:	601a      	str	r2, [r3, #0]
 8003c06:	f7ff ff1f 	bl	8003a48 <UART_CheckIdleState>
 8003c0a:	e7c9      	b.n	8003ba0 <HAL_RS485Ex_Init+0x10>
 8003c0c:	ffff7fff 	.word	0xffff7fff
 8003c10:	fc00ffff 	.word	0xfc00ffff

08003c14 <memset>:
 8003c14:	0003      	movs	r3, r0
 8003c16:	1882      	adds	r2, r0, r2
 8003c18:	4293      	cmp	r3, r2
 8003c1a:	d100      	bne.n	8003c1e <memset+0xa>
 8003c1c:	4770      	bx	lr
 8003c1e:	7019      	strb	r1, [r3, #0]
 8003c20:	3301      	adds	r3, #1
 8003c22:	e7f9      	b.n	8003c18 <memset+0x4>

08003c24 <__libc_init_array>:
 8003c24:	b570      	push	{r4, r5, r6, lr}
 8003c26:	2600      	movs	r6, #0
 8003c28:	4c0c      	ldr	r4, [pc, #48]	@ (8003c5c <__libc_init_array+0x38>)
 8003c2a:	4d0d      	ldr	r5, [pc, #52]	@ (8003c60 <__libc_init_array+0x3c>)
 8003c2c:	1b64      	subs	r4, r4, r5
 8003c2e:	10a4      	asrs	r4, r4, #2
 8003c30:	42a6      	cmp	r6, r4
 8003c32:	d109      	bne.n	8003c48 <__libc_init_array+0x24>
 8003c34:	2600      	movs	r6, #0
 8003c36:	f000 f823 	bl	8003c80 <_init>
 8003c3a:	4c0a      	ldr	r4, [pc, #40]	@ (8003c64 <__libc_init_array+0x40>)
 8003c3c:	4d0a      	ldr	r5, [pc, #40]	@ (8003c68 <__libc_init_array+0x44>)
 8003c3e:	1b64      	subs	r4, r4, r5
 8003c40:	10a4      	asrs	r4, r4, #2
 8003c42:	42a6      	cmp	r6, r4
 8003c44:	d105      	bne.n	8003c52 <__libc_init_array+0x2e>
 8003c46:	bd70      	pop	{r4, r5, r6, pc}
 8003c48:	00b3      	lsls	r3, r6, #2
 8003c4a:	58eb      	ldr	r3, [r5, r3]
 8003c4c:	4798      	blx	r3
 8003c4e:	3601      	adds	r6, #1
 8003c50:	e7ee      	b.n	8003c30 <__libc_init_array+0xc>
 8003c52:	00b3      	lsls	r3, r6, #2
 8003c54:	58eb      	ldr	r3, [r5, r3]
 8003c56:	4798      	blx	r3
 8003c58:	3601      	adds	r6, #1
 8003c5a:	e7f2      	b.n	8003c42 <__libc_init_array+0x1e>
 8003c5c:	08003f18 	.word	0x08003f18
 8003c60:	08003f18 	.word	0x08003f18
 8003c64:	08003f1c 	.word	0x08003f1c
 8003c68:	08003f18 	.word	0x08003f18

08003c6c <memcpy>:
 8003c6c:	2300      	movs	r3, #0
 8003c6e:	b510      	push	{r4, lr}
 8003c70:	429a      	cmp	r2, r3
 8003c72:	d100      	bne.n	8003c76 <memcpy+0xa>
 8003c74:	bd10      	pop	{r4, pc}
 8003c76:	5ccc      	ldrb	r4, [r1, r3]
 8003c78:	54c4      	strb	r4, [r0, r3]
 8003c7a:	3301      	adds	r3, #1
 8003c7c:	e7f8      	b.n	8003c70 <memcpy+0x4>
	...

08003c80 <_init>:
 8003c80:	b5f8      	push	{r3, r4, r5, r6, r7, lr}
 8003c82:	46c0      	nop			@ (mov r8, r8)
 8003c84:	bcf8      	pop	{r3, r4, r5, r6, r7}
 8003c86:	bc08      	pop	{r3}
 8003c88:	469e      	mov	lr, r3
 8003c8a:	4770      	bx	lr

08003c8c <_fini>:
 8003c8c:	b5f8      	push	{r3, r4, r5, r6, r7, lr}
 8003c8e:	46c0      	nop			@ (mov r8, r8)
 8003c90:	bcf8      	pop	{r3, r4, r5, r6, r7}
 8003c92:	bc08      	pop	{r3}
 8003c94:	469e      	mov	lr, r3
 8003c96:	4770      	bx	lr
